	.text
	.file	"tests/mean_test.c"
	.file	1 "/usr/lib/llvm-3.8/bin/../lib/clang/3.8.0/include" "stddef.h"
	.file	2 "tests" "mean_test.c"
	.file	3 "/usr/include" "stdint.h"
	.file	4 "/usr/include/x86_64-linux-gnu/bits" "types.h"
	.file	5 "/usr/include" "time.h"
	.file	6 "/usr/include/x86_64-linux-gnu/sys" "timeb.h"
	.section	.rodata.cst4,"aM",@progbits,4
	.align	4
.LCPI0_0:
	.long	1048576000              # float 0.25
.LCPI0_1:
	.long	1065353216              # float 1
	.text
	.globl	main
	.align	16, 0x90
	.type	main,@function
main:                                   # @main
.Lfunc_begin0:
	.loc	2 258 0                 # tests/mean_test.c:258:0
	.cfi_startproc
# BB#0:
	.loc	2 259 17 prologue_end   # tests/mean_test.c:259:17
	pushq	%r15
.Ltmp0:
	.cfi_def_cfa_offset 16
	pushq	%r14
.Ltmp1:
	.cfi_def_cfa_offset 24
	pushq	%r13
.Ltmp2:
	.cfi_def_cfa_offset 32
	pushq	%r12
.Ltmp3:
	.cfi_def_cfa_offset 40
	pushq	%rbx
.Ltmp4:
	.cfi_def_cfa_offset 48
	subq	$16, %rsp
.Ltmp5:
	.cfi_def_cfa_offset 64
.Ltmp6:
	.cfi_offset %rbx, -48
.Ltmp7:
	.cfi_offset %r12, -40
.Ltmp8:
	.cfi_offset %r13, -32
.Ltmp9:
	.cfi_offset %r14, -24
.Ltmp10:
	.cfi_offset %r15, -16
	xorl	%eax, %eax
	callq	new_random@PLT
	movq	%rax, %rdi
	.loc	2 259 15 is_stmt 0      # tests/mean_test.c:259:15
	movq	%rdi, generator(%rip)
	movl	$24, %ebx
.Ltmp11:
	#DEBUG_VALUE: i <- 0
	jmp	.LBB0_1
	.align	16, 0x90
.LBB0_2:                                # %._crit_edge
                                        #   in Loop: Header=BB0_1 Depth=1
.Ltmp12:
	#DEBUG_VALUE: max_iter <- %R8
	#DEBUG_VALUE: offset1 <- %R13
	#DEBUG_VALUE: offset0 <- %R12
	#DEBUG_VALUE: bin_count <- %R15
	#DEBUG_VALUE: array_count <- %R14
	.loc	2 263 13 is_stmt 1      # tests/mean_test.c:263:13
	movq	generator(%rip), %rdi
.Ltmp13:
.LBB0_1:                                # =>This Inner Loop Header: Depth=1
	.loc	2 262 30 discriminator 1 # tests/mean_test.c:262:30
	movl	$1, %esi
	movl	$600, %edx              # imm = 0x258
	callq	random_dist_u32@PLT
	.loc	2 262 30 is_stmt 0      # tests/mean_test.c:262:30
	movl	%eax, %r14d
.Ltmp14:
	#DEBUG_VALUE: array_count <- %R14
	.loc	2 265 13 is_stmt 1      # tests/mean_test.c:265:13
	movq	generator(%rip), %rdi
	.loc	2 262 30 discriminator 1 # tests/mean_test.c:262:30
	movl	$1, %esi
	.loc	2 264 28 discriminator 1 # tests/mean_test.c:264:28
	movl	$500000, %edx           # imm = 0x7A120
	callq	random_dist_u32@PLT
	.loc	2 264 28 is_stmt 0      # tests/mean_test.c:264:28
	movl	%eax, %r15d
.Ltmp15:
	#DEBUG_VALUE: bin_count <- %R15
	.loc	2 267 42 is_stmt 1      # tests/mean_test.c:267:42
	movq	generator(%rip), %rdi
.Ltmp16:
	.loc	2 259 17                # tests/mean_test.c:259:17
	xorl	%esi, %esi
	.loc	2 267 26 discriminator 1 # tests/mean_test.c:267:26
.Ltmp17:
	movl	$15, %edx
	callq	random_dist_u32@PLT
	.loc	2 267 26 is_stmt 0      # tests/mean_test.c:267:26
	movl	%eax, %r12d
.Ltmp18:
	#DEBUG_VALUE: offset0 <- %R12
	.loc	2 268 42 is_stmt 1      # tests/mean_test.c:268:42
	movq	generator(%rip), %rdi
.Ltmp19:
	.loc	2 259 17                # tests/mean_test.c:259:17
	xorl	%esi, %esi
	.loc	2 267 26 discriminator 1 # tests/mean_test.c:267:26
.Ltmp20:
	movl	$15, %edx
	.loc	2 268 26 discriminator 1 # tests/mean_test.c:268:26
	callq	random_dist_u32@PLT
	.loc	2 268 26 is_stmt 0      # tests/mean_test.c:268:26
	movl	%eax, %r13d
.Ltmp21:
	#DEBUG_VALUE: offset1 <- %R13
	.loc	2 269 61 is_stmt 1      # tests/mean_test.c:269:61
	movq	generator(%rip), %rdi
.Ltmp22:
	.loc	2 259 17                # tests/mean_test.c:259:17
	xorl	%esi, %esi
	.loc	2 269 45 discriminator 1 # tests/mean_test.c:269:45
.Ltmp23:
	movl	$12, %edx
	callq	random_dist_u32@PLT
	.loc	2 269 45 is_stmt 0      # tests/mean_test.c:269:45
	movl	%eax, %eax
	vcvtsi2ssq	%rax, %xmm0, %xmm0
	.loc	2 269 43                # tests/mean_test.c:269:43
	vmovss	.LCPI0_0(%rip), %xmm1   # xmm1 = mem[0],zero,zero,zero
	vmulss	%xmm1, %xmm0, %xmm0
	.loc	2 269 35                # tests/mean_test.c:269:35
	vmovss	.LCPI0_1(%rip), %xmm1   # xmm1 = mem[0],zero,zero,zero
	vaddss	%xmm1, %xmm0, %xmm0
	.loc	2 269 30                # tests/mean_test.c:269:30
	vcvtss2sd	%xmm0, %xmm0, %xmm0
.Ltmp24:
	#DEBUG_VALUE: sigma_lower <- [%RSP+8]
	.loc	2 270 61 is_stmt 1      # tests/mean_test.c:270:61
	vmovsd	%xmm0, 8(%rsp)          # 8-byte Spill
	movq	generator(%rip), %rdi
.Ltmp25:
	.loc	2 259 17                # tests/mean_test.c:259:17
	xorl	%esi, %esi
	.loc	2 269 45 discriminator 1 # tests/mean_test.c:269:45
.Ltmp26:
	movl	$12, %edx
	.loc	2 270 45 discriminator 1 # tests/mean_test.c:270:45
	callq	random_dist_u32@PLT
.Ltmp27:
	.loc	2 270 45 is_stmt 0      # tests/mean_test.c:270:45
	movl	%eax, %eax
	vxorps	%xmm0, %xmm0, %xmm0
	vcvtsi2ssq	%rax, %xmm0, %xmm0
	.loc	2 270 43                # tests/mean_test.c:270:43
	vmulss	.LCPI0_0(%rip), %xmm0, %xmm0
	.loc	2 270 35                # tests/mean_test.c:270:35
	vaddss	.LCPI0_1(%rip), %xmm0, %xmm0
	.loc	2 270 30                # tests/mean_test.c:270:30
	vcvtss2sd	%xmm0, %xmm0, %xmm0
.Ltmp28:
	#DEBUG_VALUE: sigma_upper <- [%RSP+0]
	.loc	2 272 13 is_stmt 1      # tests/mean_test.c:272:13
	vmovsd	%xmm0, (%rsp)           # 8-byte Spill
	movq	generator(%rip), %rdi
.Ltmp29:
	.loc	2 259 17                # tests/mean_test.c:259:17
	xorl	%esi, %esi
	.loc	2 267 26 discriminator 1 # tests/mean_test.c:267:26
.Ltmp30:
	movl	$15, %edx
	.loc	2 271 27 discriminator 1 # tests/mean_test.c:271:27
	callq	random_dist_u32@PLT
.Ltmp31:
	.loc	2 271 27 is_stmt 0      # tests/mean_test.c:271:27
	movl	%eax, %r8d
.Ltmp32:
	#DEBUG_VALUE: max_iter <- %R8
	.loc	2 274 9 is_stmt 1       # tests/mean_test.c:274:9
	movq	%r14, %rdi
	movq	%r15, %rsi
	movq	%r12, %rdx
	movq	%r13, %rcx
	vmovsd	8(%rsp), %xmm0          # 8-byte Reload
                                        # xmm0 = mem[0],zero
	vmovsd	(%rsp), %xmm1           # 8-byte Reload
                                        # xmm1 = mem[0],zero
	callq	test_mean
.Ltmp33:
	.loc	2 261 5 discriminator 1 # tests/mean_test.c:261:5
	decq	%rbx
	jne	.LBB0_2
.Ltmp34:
# BB#3:
	#DEBUG_VALUE: max_iter <- %R8
	#DEBUG_VALUE: offset1 <- %R13
	#DEBUG_VALUE: offset0 <- %R12
	#DEBUG_VALUE: bin_count <- %R15
	#DEBUG_VALUE: array_count <- %R14
	.loc	2 279 1                 # tests/mean_test.c:279:1
	xorl	%eax, %eax
	addq	$16, %rsp
	popq	%rbx
	popq	%r12
.Ltmp35:
	popq	%r13
.Ltmp36:
	popq	%r14
.Ltmp37:
	popq	%r15
.Ltmp38:
	retq
.Ltmp39:
.Lfunc_end0:
	.size	main, .Lfunc_end0-main
	.cfi_endproc

	.section	.rodata.cst16,"aM",@progbits,16
	.align	16
.LCPI1_0:
	.long	4                       # 0x4
	.long	5                       # 0x5
	.long	6                       # 0x6
	.long	7                       # 0x7
.LCPI1_1:
	.long	0                       # 0x0
	.long	1                       # 0x1
	.long	2                       # 0x2
	.long	3                       # 0x3
.LCPI1_2:
	.long	12                      # 0xc
	.long	13                      # 0xd
	.long	14                      # 0xe
	.long	15                      # 0xf
.LCPI1_3:
	.long	8                       # 0x8
	.long	9                       # 0x9
	.long	10                      # 0xa
	.long	11                      # 0xb
.LCPI1_4:
	.long	20                      # 0x14
	.long	21                      # 0x15
	.long	22                      # 0x16
	.long	23                      # 0x17
.LCPI1_5:
	.long	16                      # 0x10
	.long	17                      # 0x11
	.long	18                      # 0x12
	.long	19                      # 0x13
.LCPI1_6:
	.long	28                      # 0x1c
	.long	29                      # 0x1d
	.long	30                      # 0x1e
	.long	31                      # 0x1f
.LCPI1_7:
	.long	24                      # 0x18
	.long	25                      # 0x19
	.long	26                      # 0x1a
	.long	27                      # 0x1b
.LCPI1_9:
	.long	1127219200              # 0x43300000
	.long	1160773632              # 0x45300000
	.long	0                       # 0x0
	.long	0                       # 0x0
.LCPI1_10:
	.quad	4841369599423283200     # double 4503599627370496
	.quad	4985484787499139072     # double 1.9342813113834067E+25
	.section	.rodata.cst8,"aM",@progbits,8
	.align	8
.LCPI1_8:
	.quad	4696837146684686336     # double 1.0E+6
.LCPI1_14:
	.quad	0                       # double 0
	.section	.rodata.cst4,"aM",@progbits,4
	.align	4
.LCPI1_11:
	.long	1199570944              # float 65536
.LCPI1_12:
	.long	2143289344              # float NaN
.LCPI1_13:
	.long	1065353216              # float 1
	.text
	.align	16, 0x90
	.type	test_mean,@function
test_mean:                              # @test_mean
.Lfunc_begin1:
	.loc	2 138 0                 # tests/mean_test.c:138:0
	.cfi_startproc
# BB#0:
	pushq	%rbp
.Ltmp40:
	.cfi_def_cfa_offset 16
.Ltmp41:
	.cfi_offset %rbp, -16
	movq	%rsp, %rbp
.Ltmp42:
	.cfi_def_cfa_register %rbp
	pushq	%r15
	pushq	%r14
	pushq	%r13
	pushq	%r12
	pushq	%rbx
	subq	$264, %rsp              # imm = 0x108
.Ltmp43:
	.cfi_offset %rbx, -56
.Ltmp44:
	.cfi_offset %r12, -48
.Ltmp45:
	.cfi_offset %r13, -40
.Ltmp46:
	.cfi_offset %r14, -32
.Ltmp47:
	.cfi_offset %r15, -24
	#DEBUG_VALUE: test_mean:array_count <- %RDI
	#DEBUG_VALUE: test_mean:bin_count <- %RSI
	#DEBUG_VALUE: test_mean:offset0 <- %RDX
	#DEBUG_VALUE: test_mean:offset1 <- %RCX
	#DEBUG_VALUE: test_mean:sigma_lower <- %XMM0
	#DEBUG_VALUE: test_mean:sigma_upper <- %XMM1
	#DEBUG_VALUE: test_mean:max_iter <- %R8
	movq	%r8, -256(%rbp)         # 8-byte Spill
.Ltmp48:
	#DEBUG_VALUE: test_mean:max_iter <- [%RBP+-256]
	vmovsd	%xmm1, -272(%rbp)       # 8-byte Spill
.Ltmp49:
	#DEBUG_VALUE: test_mean:sigma_upper <- [%RBP+-272]
	vmovsd	%xmm0, -280(%rbp)       # 8-byte Spill
.Ltmp50:
	#DEBUG_VALUE: test_mean:sigma_lower <- [%RBP+-280]
	movq	%rcx, %rbx
.Ltmp51:
	#DEBUG_VALUE: test_mean:offset1 <- %RBX
	movq	%rdx, %r13
.Ltmp52:
	#DEBUG_VALUE: test_mean:offset0 <- %R13
	movq	%rsi, %r14
.Ltmp53:
	#DEBUG_VALUE: test_mean:bin_count <- %R14
	movq	%rdi, %r12
.Ltmp54:
	#DEBUG_VALUE: test_mean:array_count <- %R12
	.loc	2 139 58 prologue_end   # tests/mean_test.c:139:58
	movq	generator(%rip), %rdi
	.loc	2 139 49 is_stmt 0      # tests/mean_test.c:139:49
	callq	get_seed@PLT
	movq	%rax, %rcx
	.loc	2 139 5 discriminator 1 # tests/mean_test.c:139:5
	leaq	.L.str(%rip), %rdi
	xorl	%eax, %eax
	movq	%rcx, %rsi
	callq	printf@PLT
	.loc	2 140 5 is_stmt 1       # tests/mean_test.c:140:5
	leaq	.L.str.1(%rip), %rdi
	xorl	%eax, %eax
	movq	%r12, %rsi
	movq	%r14, %rdx
	callq	printf@PLT
	.loc	2 141 5                 # tests/mean_test.c:141:5
	leaq	.L.str.2(%rip), %rdi
	xorl	%eax, %eax
	movq	%r13, %rsi
	movq	%rbx, %rdx
	callq	printf@PLT
	.loc	2 143 5                 # tests/mean_test.c:143:5
	leaq	-1(%r12), %rax
	movq	%rax, -240(%rbp)        # 8-byte Spill
	cmpq	$600, %rax              # imm = 0x258
	jae	.LBB1_71
.Ltmp55:
# BB#1:
	#DEBUG_VALUE: test_mean:array_count <- %R12
	#DEBUG_VALUE: test_mean:bin_count <- %R14
	#DEBUG_VALUE: test_mean:offset0 <- %R13
	#DEBUG_VALUE: test_mean:offset1 <- %RBX
	#DEBUG_VALUE: test_mean:sigma_lower <- [%RBP+-280]
	#DEBUG_VALUE: test_mean:sigma_upper <- [%RBP+-272]
	#DEBUG_VALUE: test_mean:max_iter <- [%RBP+-256]
	.loc	2 144 5                 # tests/mean_test.c:144:5
	leaq	-1(%r14), %rax
	cmpq	$500000, %rax           # imm = 0x7A120
	jae	.LBB1_72
.Ltmp56:
# BB#2:
	#DEBUG_VALUE: test_mean:max_iter <- [%RBP+-256]
	#DEBUG_VALUE: test_mean:sigma_upper <- [%RBP+-272]
	#DEBUG_VALUE: test_mean:sigma_lower <- [%RBP+-280]
	#DEBUG_VALUE: test_mean:offset1 <- %RBX
	#DEBUG_VALUE: test_mean:offset0 <- %R13
	#DEBUG_VALUE: test_mean:bin_count <- %R14
	#DEBUG_VALUE: test_mean:array_count <- %R12
	.loc	2 145 5                 # tests/mean_test.c:145:5
	cmpq	$16, %r13
	jae	.LBB1_73
.Ltmp57:
# BB#3:
	#DEBUG_VALUE: test_mean:array_count <- %R12
	#DEBUG_VALUE: test_mean:bin_count <- %R14
	#DEBUG_VALUE: test_mean:offset0 <- %R13
	#DEBUG_VALUE: test_mean:offset1 <- %RBX
	#DEBUG_VALUE: test_mean:sigma_lower <- [%RBP+-280]
	#DEBUG_VALUE: test_mean:sigma_upper <- [%RBP+-272]
	#DEBUG_VALUE: test_mean:max_iter <- [%RBP+-256]
	.loc	2 146 5                 # tests/mean_test.c:146:5
	cmpq	$16, %rbx
	jae	.LBB1_74
.Ltmp58:
# BB#4:
	#DEBUG_VALUE: test_mean:max_iter <- [%RBP+-256]
	#DEBUG_VALUE: test_mean:sigma_upper <- [%RBP+-272]
	#DEBUG_VALUE: test_mean:sigma_lower <- [%RBP+-280]
	#DEBUG_VALUE: test_mean:offset1 <- %RBX
	#DEBUG_VALUE: test_mean:offset0 <- %R13
	#DEBUG_VALUE: test_mean:bin_count <- %R14
	#DEBUG_VALUE: test_mean:array_count <- %R12
	.loc	2 148 5                 # tests/mean_test.c:148:5
	movq	%rsp, %r15
	addq	$-4800, %r15            # imm = 0xFFFFFFFFFFFFED40
	movq	%r15, %rsp
.Ltmp59:
	#DEBUG_VALUE: i <- 0
	.loc	2 150 27                # tests/mean_test.c:150:27
	xorl	%esi, %esi
	movl	$4800, %edx             # imm = 0x12C0
	movq	%r15, %rdi
	callq	memset@PLT
.Ltmp60:
	.loc	2 99 9                  # tests/mean_test.c:99:9
	movzbl	get_shuffled_array_counts.init(%rip), %eax
	andl	$1, %eax
	cmpl	$1, %eax
	jne	.LBB1_6
.Ltmp61:
# BB#5:                                 # %get_shuffled_array_counts.exit.thread
	#DEBUG_VALUE: test_mean:array_count <- %R12
	#DEBUG_VALUE: test_mean:bin_count <- %R14
	#DEBUG_VALUE: test_mean:offset0 <- %R13
	#DEBUG_VALUE: test_mean:offset1 <- %RBX
	#DEBUG_VALUE: test_mean:sigma_lower <- [%RBP+-280]
	#DEBUG_VALUE: test_mean:sigma_upper <- [%RBP+-272]
	#DEBUG_VALUE: test_mean:max_iter <- [%RBP+-256]
	movq	%rbx, -224(%rbp)        # 8-byte Spill
	.loc	2 105 17                # tests/mean_test.c:105:17
	movq	generator(%rip), %rdi
	.loc	2 105 5 is_stmt 0       # tests/mean_test.c:105:5
	leaq	get_shuffled_array_counts.numbers(%rip), %rsi
	movl	$600, %edx              # imm = 0x258
	callq	shuffle_u32@PLT
.Ltmp62:
	#DEBUG_VALUE: i <- 0
	jmp	.LBB1_9
.Ltmp63:
.LBB1_6:                                # %min.iters.checked
	#DEBUG_VALUE: test_mean:array_count <- %R12
	#DEBUG_VALUE: test_mean:bin_count <- %R14
	#DEBUG_VALUE: test_mean:offset0 <- %R13
	#DEBUG_VALUE: test_mean:offset1 <- %RBX
	#DEBUG_VALUE: test_mean:sigma_lower <- [%RBP+-280]
	#DEBUG_VALUE: test_mean:sigma_upper <- [%RBP+-272]
	#DEBUG_VALUE: test_mean:max_iter <- [%RBP+-256]
	.loc	2 155 32 is_stmt 1 discriminator 1 # tests/mean_test.c:155:32
	movb	$1, get_shuffled_array_counts.init(%rip)
	xorl	%eax, %eax
.Ltmp64:
	#DEBUG_VALUE: i <- 0
	.loc	2 102 24                # tests/mean_test.c:102:24
	vmovdqa	.LCPI1_0(%rip), %xmm8   # xmm8 = [4,5,6,7]
	vmovdqa	.LCPI1_1(%rip), %xmm9   # xmm9 = [0,1,2,3]
	vmovdqa	.LCPI1_2(%rip), %xmm11  # xmm11 = [12,13,14,15]
	vmovdqa	.LCPI1_3(%rip), %xmm12  # xmm12 = [8,9,10,11]
	vmovdqa	.LCPI1_4(%rip), %xmm13  # xmm13 = [20,21,22,23]
	vmovdqa	.LCPI1_5(%rip), %xmm5   # xmm5 = [16,17,18,19]
	vmovdqa	.LCPI1_6(%rip), %xmm6   # xmm6 = [28,29,30,31]
	vmovdqa	.LCPI1_7(%rip), %xmm7   # xmm7 = [24,25,26,27]
	leaq	get_shuffled_array_counts.numbers(%rip), %rcx
.Ltmp65:
	.align	16, 0x90
.LBB1_7:                                # %vector.body
                                        # =>This Inner Loop Header: Depth=1
	vmovd	%eax, %xmm0
	vpshufd	$0, %xmm0, %xmm0        # xmm0 = xmm0[0,0,0,0]
	vpaddd	%xmm8, %xmm0, %xmm1
	vpaddd	%xmm9, %xmm0, %xmm10
	vinsertf128	$1, %xmm1, %ymm10, %ymm1
	vpaddd	%xmm11, %xmm0, %xmm2
	vpaddd	%xmm12, %xmm0, %xmm10
	vinsertf128	$1, %xmm2, %ymm10, %ymm2
	vpaddd	%xmm13, %xmm0, %xmm3
	vpaddd	%xmm5, %xmm0, %xmm10
	vinsertf128	$1, %xmm3, %ymm10, %ymm3
	vpaddd	%xmm6, %xmm0, %xmm4
	vpaddd	%xmm7, %xmm0, %xmm0
	vinsertf128	$1, %xmm4, %ymm0, %ymm0
	vmovups	%ymm1, (%rcx,%rax,4)
	vmovups	%ymm2, 32(%rcx,%rax,4)
	vmovups	%ymm3, 64(%rcx,%rax,4)
	vmovups	%ymm0, 96(%rcx,%rax,4)
	leal	32(%rax), %edx
	vmovd	%edx, %xmm0
	vpshufd	$0, %xmm0, %xmm0        # xmm0 = xmm0[0,0,0,0]
	vpaddd	%xmm8, %xmm0, %xmm1
	vpaddd	%xmm9, %xmm0, %xmm2
	vinsertf128	$1, %xmm1, %ymm2, %ymm1
	vpaddd	%xmm11, %xmm0, %xmm2
	vpaddd	%xmm12, %xmm0, %xmm3
	vinsertf128	$1, %xmm2, %ymm3, %ymm2
	vpaddd	%xmm13, %xmm0, %xmm3
	vpaddd	%xmm5, %xmm0, %xmm4
	vinsertf128	$1, %xmm3, %ymm4, %ymm3
	vpaddd	%xmm6, %xmm0, %xmm4
	vpaddd	%xmm7, %xmm0, %xmm0
	vinsertf128	$1, %xmm4, %ymm0, %ymm0
	vmovupd	%ymm1, 128(%rcx,%rax,4)
	vmovups	%ymm2, 160(%rcx,%rax,4)
	vmovups	%ymm3, 192(%rcx,%rax,4)
	vmovupd	%ymm0, 224(%rcx,%rax,4)
.Ltmp66:
	.loc	2 101 9 discriminator 1 # tests/mean_test.c:101:9
	addq	$64, %rax
	cmpq	$576, %rax              # imm = 0x240
	jne	.LBB1_7
.Ltmp67:
# BB#8:                                 # %scalar.ph
	movq	%rbx, -224(%rbp)        # 8-byte Spill
	.loc	2 102 24                # tests/mean_test.c:102:24
.Ltmp68:
	movabsq	$2478196130368, %rax    # imm = 0x24100000240
	movq	%rax, get_shuffled_array_counts.numbers+2304(%rip)
	leaq	get_shuffled_array_counts.numbers(%rip), %rsi
	movabsq	$2486786064962, %rax    # imm = 0x24300000242
	movq	%rax, get_shuffled_array_counts.numbers+2312(%rip)
	movabsq	$2495375999556, %rax    # imm = 0x24500000244
	movq	%rax, get_shuffled_array_counts.numbers+2320(%rip)
	movabsq	$2503965934150, %rax    # imm = 0x24700000246
	movq	%rax, get_shuffled_array_counts.numbers+2328(%rip)
	movabsq	$2512555868744, %rax    # imm = 0x24900000248
	movq	%rax, get_shuffled_array_counts.numbers+2336(%rip)
	movabsq	$2521145803338, %rax    # imm = 0x24B0000024A
	movq	%rax, get_shuffled_array_counts.numbers+2344(%rip)
	movabsq	$2529735737932, %rax    # imm = 0x24D0000024C
	movq	%rax, get_shuffled_array_counts.numbers+2352(%rip)
	movabsq	$2538325672526, %rax    # imm = 0x24F0000024E
	movq	%rax, get_shuffled_array_counts.numbers+2360(%rip)
	movabsq	$2546915607120, %rax    # imm = 0x25100000250
	movq	%rax, get_shuffled_array_counts.numbers+2368(%rip)
	movabsq	$2555505541714, %rax    # imm = 0x25300000252
	movq	%rax, get_shuffled_array_counts.numbers+2376(%rip)
	movabsq	$2564095476308, %rax    # imm = 0x25500000254
	movq	%rax, get_shuffled_array_counts.numbers+2384(%rip)
	movabsq	$2572685410902, %rax    # imm = 0x25700000256
	movq	%rax, get_shuffled_array_counts.numbers+2392(%rip)
.Ltmp69:
	.loc	2 105 17                # tests/mean_test.c:105:17
	movq	generator(%rip), %rdi
	.loc	2 105 5 is_stmt 0       # tests/mean_test.c:105:5
	movl	$600, %edx              # imm = 0x258
	vzeroupper
	callq	shuffle_u32@PLT
	#DEBUG_VALUE: i <- 0
	movb	$1, %al
.Ltmp70:
	.loc	2 156 26 is_stmt 1 discriminator 1 # tests/mean_test.c:156:26
	testq	%r12, %r12
	je	.LBB1_14
.LBB1_9:                                # %.lr.ph43.preheader
	xorl	%edx, %edx
	.loc	2 157 43                # tests/mean_test.c:157:43
.Ltmp71:
	testb	$3, %r12b
	je	.LBB1_12
# BB#10:                                # %.lr.ph43.prol.preheader
	movl	%r12d, %eax
	andl	$3, %eax
	leaq	get_shuffled_array_counts.numbers(%rip), %rcx
	xorl	%edx, %edx
	.loc	2 157 40 is_stmt 0      # tests/mean_test.c:157:40
	leaq	input_data(%rip), %rsi
	.align	16, 0x90
.LBB1_11:                               # %.lr.ph43.prol
                                        # =>This Inner Loop Header: Depth=1
	.loc	2 157 43                # tests/mean_test.c:157:43
	movl	(%rcx), %edi
	.loc	2 157 55                # tests/mean_test.c:157:55
	imulq	%r14, %rdi
	.loc	2 157 40                # tests/mean_test.c:157:40
	leaq	(%rsi,%rdi,2), %rdi
	.loc	2 157 68                # tests/mean_test.c:157:68
	leaq	(%rdi,%r13,2), %rdi
	.loc	2 157 27                # tests/mean_test.c:157:27
	movq	%rdi, (%r15,%rdx,8)
.Ltmp72:
	.loc	2 156 41 is_stmt 1 discriminator 3 # tests/mean_test.c:156:41
	incq	%rdx
.Ltmp73:
	#DEBUG_VALUE: i <- %RDX
	.loc	2 156 5 is_stmt 0 discriminator 1 # tests/mean_test.c:156:5
	addq	$4, %rcx
	cmpq	%rdx, %rax
	jne	.LBB1_11
.Ltmp74:
.LBB1_12:                               # %.lr.ph43.preheader.split
	.loc	2 157 43 is_stmt 1      # tests/mean_test.c:157:43
	cmpq	$3, -240(%rbp)          # 8-byte Folded Reload
	jb	.LBB1_13
# BB#17:                                # %.lr.ph43.preheader.split.split
	movq	%r12, %rax
	subq	%rdx, %rax
	leaq	24(%r15,%rdx,8), %rcx
	leaq	get_shuffled_array_counts.numbers(%rip), %rsi
	leaq	12(%rsi,%rdx,4), %rdx
	.loc	2 157 40 is_stmt 0      # tests/mean_test.c:157:40
	leaq	input_data(%rip), %rsi
	.align	16, 0x90
.LBB1_18:                               # %.lr.ph43
                                        # =>This Inner Loop Header: Depth=1
	.loc	2 157 43                # tests/mean_test.c:157:43
	movl	-12(%rdx), %edi
	.loc	2 157 55                # tests/mean_test.c:157:55
	imulq	%r14, %rdi
	.loc	2 157 40                # tests/mean_test.c:157:40
	leaq	(%rsi,%rdi,2), %rdi
	.loc	2 157 68                # tests/mean_test.c:157:68
	leaq	(%rdi,%r13,2), %rdi
	.loc	2 157 27                # tests/mean_test.c:157:27
	movq	%rdi, -24(%rcx)
	.loc	2 157 43                # tests/mean_test.c:157:43
	movl	-8(%rdx), %edi
	.loc	2 157 55                # tests/mean_test.c:157:55
	imulq	%r14, %rdi
	.loc	2 157 40                # tests/mean_test.c:157:40
	leaq	(%rsi,%rdi,2), %rdi
	.loc	2 157 68                # tests/mean_test.c:157:68
	leaq	(%rdi,%r13,2), %rdi
	.loc	2 157 27                # tests/mean_test.c:157:27
	movq	%rdi, -16(%rcx)
	.loc	2 157 43                # tests/mean_test.c:157:43
	movl	-4(%rdx), %edi
	.loc	2 157 55                # tests/mean_test.c:157:55
	imulq	%r14, %rdi
	.loc	2 157 40                # tests/mean_test.c:157:40
	leaq	(%rsi,%rdi,2), %rdi
	.loc	2 157 68                # tests/mean_test.c:157:68
	leaq	(%rdi,%r13,2), %rdi
	.loc	2 157 27                # tests/mean_test.c:157:27
	movq	%rdi, -8(%rcx)
	.loc	2 157 43                # tests/mean_test.c:157:43
	movl	(%rdx), %edi
	.loc	2 157 55                # tests/mean_test.c:157:55
	imulq	%r14, %rdi
	.loc	2 157 40                # tests/mean_test.c:157:40
	leaq	(%rsi,%rdi,2), %rdi
	.loc	2 157 68                # tests/mean_test.c:157:68
	leaq	(%rdi,%r13,2), %rdi
	.loc	2 157 27                # tests/mean_test.c:157:27
	movq	%rdi, (%rcx)
.Ltmp75:
	.loc	2 156 5 is_stmt 1 discriminator 1 # tests/mean_test.c:156:5
	addq	$32, %rcx
	addq	$16, %rdx
	addq	$-4, %rax
	jne	.LBB1_18
.Ltmp76:
.LBB1_13:
	xorl	%eax, %eax
.LBB1_14:                               # %._crit_edge44
	movl	%eax, -300(%rbp)        # 4-byte Spill
	.loc	2 163 56                # tests/mean_test.c:163:56
.Ltmp77:
	leaq	(%r14,%r14), %rsi
	leaq	-96(%rbp), %rdi
.Ltmp78:
	#DEBUG_VALUE: test_mean:input_page <- [%RDI+0]
	.loc	2 163 9 is_stmt 0       # tests/mean_test.c:163:9
	xorl	%edx, %edx
	callq	init_canary_page@PLT
	.loc	2 163 72                # tests/mean_test.c:163:72
	testl	%eax, %eax
	jne	.LBB1_15
.Ltmp79:
# BB#19:
	#DEBUG_VALUE: test_mean:input_page <- [%RDI+0]
	.loc	2 168 22 is_stmt 1      # tests/mean_test.c:168:22
	movq	-96(%rbp), %rbx
	.loc	2 167 36                # tests/mean_test.c:167:36
	movq	generator(%rip), %rdi
.Ltmp80:
	.loc	2 167 62 is_stmt 0      # tests/mean_test.c:167:62
	leal	-1(%r12), %edx
	.loc	2 167 20                # tests/mean_test.c:167:20
	xorl	%esi, %esi
	callq	random_dist_u32@PLT
	.loc	2 167 5                 # tests/mean_test.c:167:5
	movl	%eax, %eax
	.loc	2 168 9 is_stmt 1       # tests/mean_test.c:168:9
	movq	%rbx, (%r15,%rax,8)
	.loc	2 172 37                # tests/mean_test.c:172:37
	leaq	(,%r14,4), %rsi
	movq	-224(%rbp), %rdx        # 8-byte Reload
	.loc	2 172 58 is_stmt 0      # tests/mean_test.c:172:58
	shlq	$2, %rdx
	leaq	-136(%rbp), %rdi
.Ltmp81:
	#DEBUG_VALUE: test_mean:output_page <- [%RDI+0]
	.loc	2 171 5 is_stmt 1       # tests/mean_test.c:171:5
	callq	init_canary_page@PLT
	.loc	2 174 41                # tests/mean_test.c:174:41
	movq	-136(%rbp), %rax
.Ltmp82:
	#DEBUG_VALUE: test_mean:output_pointer <- [%RBP+-296]
	.loc	2 177 43                # tests/mean_test.c:177:43
	movq	%rax, -296(%rbp)        # 8-byte Spill
	movq	generator(%rip), %rdi
.Ltmp83:
	.loc	2 167 20                # tests/mean_test.c:167:20
	xorl	%esi, %esi
	.loc	2 177 27 discriminator 1 # tests/mean_test.c:177:27
	movl	$3071, %edx             # imm = 0xBFF
	callq	random_dist_u32@PLT
.Ltmp84:
	#DEBUG_VALUE: i <- 0
	#DEBUG_VALUE: test_mean:base <- %EAX
	#DEBUG_VALUE: random_fill:base <- %EAX
	.loc	2 178 5 discriminator 1 # tests/mean_test.c:178:5
	movq	%rax, -232(%rbp)        # 8-byte Spill
	movl	-300(%rbp), %eax        # 4-byte Reload
.Ltmp85:
	testb	%al, %al
	jne	.LBB1_25
# BB#20:                                # %.lr.ph40
	#DEBUG_VALUE: test_mean:output_pointer <- [%RBP+-296]
	xorl	%eax, %eax
	movq	%rax, -248(%rbp)        # 8-byte Spill
	.align	16, 0x90
.LBB1_21:                               # =>This Loop Header: Depth=1
                                        #     Child Loop BB1_23 Depth 2
	testq	%r14, %r14
.Ltmp86:
	#DEBUG_VALUE: i <- 0
	je	.LBB1_24
# BB#22:                                #   in Loop: Header=BB1_21 Depth=1
	.loc	2 179 21                # tests/mean_test.c:179:21
.Ltmp87:
	movq	-248(%rbp), %rax        # 8-byte Reload
	movq	(%r15,%rax,8), %r13
.Ltmp88:
	#DEBUG_VALUE: random_fill:out <- %R13
	.loc	2 179 9 is_stmt 0       # tests/mean_test.c:179:9
	movq	%r14, %rax
.Ltmp89:
	.align	16, 0x90
.LBB1_23:                               # %.lr.ph.i
                                        #   Parent Loop BB1_21 Depth=1
                                        # =>  This Inner Loop Header: Depth=2
	.loc	2 111 33 is_stmt 1      # tests/mean_test.c:111:33
	movq	%rax, -224(%rbp)        # 8-byte Spill
	movq	generator(%rip), %rdi
	.loc	2 111 22 is_stmt 0 discriminator 1 # tests/mean_test.c:111:22
.Ltmp90:
	callq	random_u32@PLT
	movl	%eax, %ebx
.Ltmp91:
	#DEBUG_VALUE: r <- %EBX
	.loc	2 112 33 is_stmt 1      # tests/mean_test.c:112:33
	movq	generator(%rip), %rdi
	.loc	2 112 22 is_stmt 0 discriminator 1 # tests/mean_test.c:112:22
.Ltmp92:
	callq	random_u32@PLT
	movq	-232(%rbp), %r9         # 8-byte Reload
.Ltmp93:
	#DEBUG_VALUE: s <- %EAX
	.loc	2 114 22 is_stmt 1      # tests/mean_test.c:114:22
	movl	%ebx, %ecx
	andl	$127, %ecx
	.loc	2 115 11                # tests/mean_test.c:115:11
	movl	%ebx, %edx
	shrl	$10, %edx
.Ltmp94:
	#DEBUG_VALUE: r <- %EDX
	.loc	2 116 16                # tests/mean_test.c:116:16
	leal	(,%rdx,8), %esi
	subl	%edx, %esi
	.loc	2 116 30 is_stmt 0      # tests/mean_test.c:116:30
	andl	$1023, %esi             # imm = 0x3FF
	.loc	2 117 11 is_stmt 1      # tests/mean_test.c:117:11
	shrl	$20, %ebx
.Ltmp95:
	#DEBUG_VALUE: r <- %EBX
	.loc	2 118 16                # tests/mean_test.c:118:16
	leal	(%rbx,%rbx,4), %r8d
	.loc	2 120 16                # tests/mean_test.c:120:16
	leal	(,%rax,8), %edi
	subl	%eax, %edi
	.loc	2 120 30 is_stmt 0      # tests/mean_test.c:120:30
	andl	$1023, %edi             # imm = 0x3FF
	.loc	2 121 11 is_stmt 1      # tests/mean_test.c:121:11
	movl	%eax, %ebx
.Ltmp96:
	shrl	$10, %ebx
.Ltmp97:
	#DEBUG_VALUE: s <- %EBX
	.loc	2 122 16                # tests/mean_test.c:122:16
	leal	(,%rbx,8), %edx
	subl	%ebx, %edx
	.loc	2 122 30 is_stmt 0      # tests/mean_test.c:122:30
	andl	$1023, %edx             # imm = 0x3FF
	.loc	2 123 11 is_stmt 1      # tests/mean_test.c:123:11
	shrl	$20, %eax
.Ltmp98:
	#DEBUG_VALUE: s <- %EAX
	.loc	2 124 16                # tests/mean_test.c:124:16
	leal	(%rax,%rax,2), %eax
.Ltmp99:
	.loc	2 116 11                # tests/mean_test.c:116:11
	leal	(%r9,%rcx,8), %ecx
	.loc	2 118 11                # tests/mean_test.c:118:11
	addl	%r8d, %ecx
	.loc	2 120 11                # tests/mean_test.c:120:11
	addl	%esi, %ecx
	.loc	2 122 11                # tests/mean_test.c:122:11
	addl	%eax, %ecx
	movq	-224(%rbp), %rax        # 8-byte Reload
	.loc	2 124 11                # tests/mean_test.c:124:11
	addl	%edi, %ecx
	.loc	2 126 20                # tests/mean_test.c:126:20
	addl	%edx, %ecx
	.loc	2 126 16 is_stmt 0      # tests/mean_test.c:126:16
	movw	%cx, (%r13)
.Ltmp100:
	.loc	2 110 5 is_stmt 1 discriminator 1 # tests/mean_test.c:110:5
	addq	$2, %r13
	decq	%rax
	jne	.LBB1_23
.Ltmp101:
.LBB1_24:                               # %random_fill.exit
                                        #   in Loop: Header=BB1_21 Depth=1
	movq	-248(%rbp), %rax        # 8-byte Reload
	.loc	2 178 41 discriminator 3 # tests/mean_test.c:178:41
	incq	%rax
.Ltmp102:
	#DEBUG_VALUE: i <- %RAX
	.loc	2 178 5 is_stmt 0 discriminator 1 # tests/mean_test.c:178:5
	movq	%rax, -248(%rbp)        # 8-byte Spill
	cmpq	%r12, %rax
.Ltmp103:
	#DEBUG_VALUE: i <- [%RBP+-248]
	jne	.LBB1_21
.Ltmp104:
.LBB1_25:                               # %._crit_edge41
	.loc	2 182 45 is_stmt 1      # tests/mean_test.c:182:45
	movq	generator(%rip), %rdi
	.loc	2 182 29 is_stmt 0 discriminator 1 # tests/mean_test.c:182:29
	movl	$1, %esi
	movl	$15, %edx
	callq	random_dist_u32@PLT
	movl	%eax, %r13d
.Ltmp105:
	#DEBUG_VALUE: test_mean:thread_count <- %R13D
	.loc	2 185 5 is_stmt 1       # tests/mean_test.c:185:5
	leaq	.L.str.9(%rip), %rdi
	movb	$2, %al
	vmovsd	-280(%rbp), %xmm0       # 8-byte Reload
                                        # xmm0 = mem[0],zero
	vmovsd	-272(%rbp), %xmm1       # 8-byte Reload
                                        # xmm1 = mem[0],zero
	movq	-256(%rbp), %rbx        # 8-byte Reload
	movq	%rbx, %rsi
	callq	printf@PLT
	.loc	2 186 5                 # tests/mean_test.c:186:5
	leaq	.L.str.10(%rip), %rdi
	xorl	%eax, %eax
	movl	%r13d, %esi
	callq	printf@PLT
	.loc	2 187 5                 # tests/mean_test.c:187:5
	leaq	timer_begin(%rip), %rdi
	callq	ftime@PLT
.Ltmp106:
	#DEBUG_VALUE: u16_input:result [bit_piece offset=256 size=64] <- %R14
	#DEBUG_VALUE: u16_input:result [bit_piece offset=192 size=64] <- %R12
	#DEBUG_VALUE: u16_input:result [bit_piece offset=320 size=32] <- 0
	.loc	2 76 12                 # tests/mean_test.c:76:12
	leaq	u16_input_loop(%rip), %rax
	movq	%rax, -184(%rbp)
	leaq	no_op(%rip), %rax
	movq	%rax, -176(%rbp)
	movq	%r15, -168(%rbp)
	movq	%r12, -160(%rbp)
	movq	%r14, -152(%rbp)
	movl	$0, -144(%rbp)
	leaq	-216(%rbp), %rdi
.Ltmp107:
	.loc	2 197 9                 # tests/mean_test.c:197:9
	vmovsd	-280(%rbp), %xmm0       # 8-byte Reload
                                        # xmm0 = mem[0],zero
	vmovsd	-272(%rbp), %xmm1       # 8-byte Reload
                                        # xmm1 = mem[0],zero
	movq	%rbx, %rsi
	callq	mediocre_clipped_mean_functor2@PLT
	.loc	2 191 18                # tests/mean_test.c:191:18
	subq	$80, %rsp
	vmovups	-184(%rbp), %ymm0
	vmovups	-168(%rbp), %ymm1
	vmovups	%ymm1, 16(%rsp)
	vmovups	%ymm0, (%rsp)
	vmovups	-216(%rbp), %ymm0
	vmovups	%ymm0, 48(%rsp)
	movq	-296(%rbp), %rdi        # 8-byte Reload
	movl	%r13d, %esi
	vzeroupper
	callq	mediocre_combine_destroy@PLT
	addq	$80, %rsp
	movl	%eax, -224(%rbp)        # 4-byte Spill
.Ltmp108:
	#DEBUG_VALUE: test_mean:status <- [%RBP+-224]
	.loc	2 201 5                 # tests/mean_test.c:201:5
	leaq	.L.str.11(%rip), %rdi
	xorl	%eax, %eax
	callq	printf@PLT
	.loc	2 202 50                # tests/mean_test.c:202:50
	movq	%r14, %rbx
	imulq	%r12, %rbx
.Ltmp109:
	#DEBUG_VALUE: print_timer_elapsed:item_count <- %RBX
	.loc	2 202 5 is_stmt 0       # tests/mean_test.c:202:5
	movq	timer_begin(%rip), %r13
.Ltmp110:
	#DEBUG_VALUE: print_timer_elapsed:before [bit_piece offset=0 size=64] <- %R13
	#DEBUG_VALUE: ms_elapsed:before [bit_piece offset=0 size=64] <- %R13
	movzwl	timer_begin+8(%rip), %eax
	.file	7 "src/inline" "testing.h"
	.loc	7 71 5 is_stmt 1        # src/inline/testing.h:71:5
.Ltmp111:
	movq	%rax, -232(%rbp)        # 8-byte Spill
	leaq	-56(%rbp), %rdi
.Ltmp112:
	#DEBUG_VALUE: ms_elapsed:now <- [%RDI+0]
	callq	ftime@PLT
	.loc	7 73 31                 # src/inline/testing.h:73:31
	movq	-56(%rbp), %rax
	.loc	7 73 38 is_stmt 0       # src/inline/testing.h:73:38
	movzwl	-48(%rbp), %esi
.Ltmp113:
	.loc	7 78 15 is_stmt 1 discriminator 1 # src/inline/testing.h:78:15
	subq	%r13, %rax
	imulq	$1000, %rax, %rax       # imm = 0x3E8
	.loc	7 73 36                 # src/inline/testing.h:73:36
.Ltmp114:
	subq	-232(%rbp), %rsi        # 8-byte Folded Reload
	.loc	7 74 19                 # src/inline/testing.h:74:19
	addq	%rax, %rsi
.Ltmp115:
	#DEBUG_VALUE: print_timer_elapsed:ms <- %RSI
	.loc	7 79 26                 # src/inline/testing.h:79:26
	vcvtsi2sdq	%rsi, %xmm0, %xmm0
	.loc	7 79 29 is_stmt 0       # src/inline/testing.h:79:29
	vmulsd	.LCPI1_8(%rip), %xmm0, %xmm0
	.loc	7 79 37                 # src/inline/testing.h:79:37
	vmovq	%rbx, %xmm1
	vpunpckldq	.LCPI1_9(%rip), %xmm1, %xmm1 # xmm1 = xmm1[0],mem[0],xmm1[1],mem[1]
	vsubpd	.LCPI1_10(%rip), %xmm1, %xmm1
	vhaddpd	%xmm1, %xmm1, %xmm1
	.loc	7 79 35                 # src/inline/testing.h:79:35
	vdivsd	%xmm1, %xmm0, %xmm0
.Ltmp116:
	#DEBUG_VALUE: print_timer_elapsed:ns_per_item <- %XMM0
	.loc	7 80 5 is_stmt 1        # src/inline/testing.h:80:5
	leaq	.L.str.18(%rip), %rdi
.Ltmp117:
	movb	$1, %al
	callq	printf@PLT
.Ltmp118:
	.loc	2 203 5                 # tests/mean_test.c:203:5
	leaq	.Lstr(%rip), %rdi
	callq	puts@PLT
	.loc	2 205 9                 # tests/mean_test.c:205:9
	cmpl	$0, -224(%rbp)          # 4-byte Folded Reload
.Ltmp119:
	#DEBUG_VALUE: u16_input:result [bit_piece offset=0 size=64] <- %RAX
	#DEBUG_VALUE: u16_input:result [bit_piece offset=64 size=64] <- %RAX
	jne	.LBB1_75
.Ltmp120:
# BB#26:                                # %.preheader14
	#DEBUG_VALUE: u16_input:result [bit_piece offset=64 size=64] <- %RAX
	#DEBUG_VALUE: print_timer_elapsed:ns_per_item <- %XMM0
	#DEBUG_VALUE: print_timer_elapsed:ms <- %RSI
	#DEBUG_VALUE: ms_elapsed:before [bit_piece offset=0 size=64] <- %R13
	#DEBUG_VALUE: print_timer_elapsed:before [bit_piece offset=0 size=64] <- %R13
	#DEBUG_VALUE: print_timer_elapsed:item_count <- %RBX
	#DEBUG_VALUE: test_mean:status <- [%RBP+-224]
	movq	-256(%rbp), %rcx        # 8-byte Reload
	.loc	2 214 44 discriminator 1 # tests/mean_test.c:214:44
.Ltmp121:
	incq	%rcx
	.loc	2 217 34                # tests/mean_test.c:217:34
.Ltmp122:
	movl	%r12d, %r10d
	andl	$1, %r10d
.Ltmp123:
	.loc	2 212 9                 # tests/mean_test.c:212:9
	movq	%r10, -288(%rbp)        # 8-byte Spill
	leaq	8(%r15), %rax
.Ltmp124:
	movq	%rax, -264(%rbp)        # 8-byte Spill
	.loc	2 219 27                # tests/mean_test.c:219:27
.Ltmp125:
	vmovss	.LCPI1_13(%rip), %xmm6  # xmm6 = mem[0],zero,zero,zero
                                        # implicit-def: %XMM3
	movq	%rcx, %r8
	vmovsd	-272(%rbp), %xmm8       # 8-byte Reload
                                        # xmm8 = mem[0],zero
	vmovsd	-280(%rbp), %xmm5       # 8-byte Reload
                                        # xmm5 = mem[0],zero
	movl	-300(%rbp), %r13d       # 4-byte Reload
.Ltmp126:
	.align	16, 0x90
.LBB1_27:                               # =>This Loop Header: Depth=1
                                        #     Child Loop BB1_28 Depth 2
                                        #       Child Loop BB1_42 Depth 3
                                        #       Child Loop BB1_55 Depth 3
	vpxor	%xmm7, %xmm7, %xmm7
.Ltmp127:
	#DEBUG_VALUE: it <- 0
	vmovss	.LCPI1_11(%rip), %xmm0  # xmm0 = mem[0],zero,zero,zero
	vmovaps	%xmm0, %xmm4
	movl	$0, %r11d
	testq	%r8, %r8
.Ltmp128:
	#DEBUG_VALUE: upper_bound <- 6.553600e+04
	#DEBUG_VALUE: lower_bound <- 0.000000e+00
	je	.LBB1_33
	.align	16, 0x90
.LBB1_28:                               # %.preheader
                                        #   Parent Loop BB1_27 Depth=1
                                        # =>  This Loop Header: Depth=2
                                        #       Child Loop BB1_42 Depth 3
                                        #       Child Loop BB1_55 Depth 3
	vxorps	%xmm0, %xmm0, %xmm0
	.loc	2 216 13 discriminator 1 # tests/mean_test.c:216:13
	testb	%r13b, %r13b
	je	.LBB1_34
# BB#29:                                #   in Loop: Header=BB1_28 Depth=2
	vmovss	.LCPI1_12(%rip), %xmm1  # xmm1 = mem[0],zero,zero,zero
	vmovaps	%xmm1, %xmm3
	vxorps	%xmm1, %xmm1, %xmm1
	jmp	.LBB1_30
	.align	16, 0x90
.LBB1_34:                               # %.lr.ph23.preheader
                                        #   in Loop: Header=BB1_28 Depth=2
	vxorpd	%xmm1, %xmm1, %xmm1
	movl	$0, %ecx
	vxorps	%xmm2, %xmm2, %xmm2
	testq	%r10, %r10
	je	.LBB1_40
# BB#35:                                # %.lr.ph23.prol
                                        #   in Loop: Header=BB1_28 Depth=2
	.loc	2 217 34                # tests/mean_test.c:217:34
.Ltmp129:
	movq	(%r15), %rax
	.loc	2 217 27 is_stmt 0      # tests/mean_test.c:217:27
	movzwl	-2(%rax,%r14,2), %eax
	vcvtsi2ssl	%eax, %xmm0, %xmm3
.Ltmp130:
	#DEBUG_VALUE: n <- %XMM3
	#DEBUG_VALUE: sum <- %XMM3
	.loc	2 218 23 is_stmt 1      # tests/mean_test.c:218:23
	vucomiss	%xmm7, %xmm3
	setb	%al
	.loc	2 218 43 is_stmt 0 discriminator 1 # tests/mean_test.c:218:43
	vucomiss	%xmm3, %xmm4
	setb	%cl
	.loc	2 218 38                # tests/mean_test.c:218:38
	orb	%al, %cl
.Ltmp131:
	#DEBUG_VALUE: count <- 1.000000e+00
	vxorpd	%xmm1, %xmm1, %xmm1
	vxorps	%xmm2, %xmm2, %xmm2
	jne	.LBB1_37
.Ltmp132:
# BB#36:                                # %.lr.ph23.prol
                                        #   in Loop: Header=BB1_28 Depth=2
	#DEBUG_VALUE: sum <- %XMM3
	#DEBUG_VALUE: n <- %XMM3
	vmovaps	%xmm3, %xmm2
.Ltmp133:
.LBB1_37:                               # %.lr.ph23.prol
                                        #   in Loop: Header=BB1_28 Depth=2
	#DEBUG_VALUE: sum <- %XMM3
	#DEBUG_VALUE: n <- %XMM3
	jne	.LBB1_39
.Ltmp134:
# BB#38:                                # %.lr.ph23.prol
                                        #   in Loop: Header=BB1_28 Depth=2
	#DEBUG_VALUE: n <- %XMM3
	#DEBUG_VALUE: sum <- %XMM3
	vmovaps	%xmm6, %xmm1
.Ltmp135:
.LBB1_39:                               # %.lr.ph23.prol
                                        #   in Loop: Header=BB1_28 Depth=2
	#DEBUG_VALUE: n <- %XMM3
	#DEBUG_VALUE: sum <- %XMM3
	#DEBUG_VALUE: a <- 1
	movl	$1, %ecx
.Ltmp136:
.LBB1_40:                               # %.lr.ph23.preheader.split
                                        #   in Loop: Header=BB1_28 Depth=2
	cmpq	$0, -240(%rbp)          # 8-byte Folded Reload
	je	.LBB1_47
# BB#41:                                # %.lr.ph23.preheader.split.split
                                        #   in Loop: Header=BB1_28 Depth=2
	.loc	2 217 34 is_stmt 1      # tests/mean_test.c:217:34
	movq	%r12, %rax
	subq	%rcx, %rax
	movq	-264(%rbp), %rdx        # 8-byte Reload
	leaq	(%rdx,%rcx,8), %rcx
	.align	16, 0x90
.LBB1_42:                               # %.lr.ph23
                                        #   Parent Loop BB1_27 Depth=1
                                        #     Parent Loop BB1_28 Depth=2
                                        # =>    This Inner Loop Header: Depth=3
	movq	-8(%rcx), %rsi
	movq	(%rcx), %rdi
	.loc	2 217 27 is_stmt 0      # tests/mean_test.c:217:27
	movzwl	-2(%rsi,%r14,2), %esi
	vcvtsi2ssl	%esi, %xmm0, %xmm3
.Ltmp137:
	#DEBUG_VALUE: n <- %XMM3
	.loc	2 218 23 is_stmt 1      # tests/mean_test.c:218:23
	vucomiss	%xmm7, %xmm3
	setb	%bl
	.loc	2 218 43 is_stmt 0 discriminator 1 # tests/mean_test.c:218:43
	vucomiss	%xmm3, %xmm4
	setb	%dl
	.loc	2 218 38                # tests/mean_test.c:218:38
	orb	%bl, %dl
	jne	.LBB1_44
.Ltmp138:
# BB#43:                                # %.lr.ph23
                                        #   in Loop: Header=BB1_42 Depth=3
	#DEBUG_VALUE: n <- %XMM3
	.loc	2 219 27 is_stmt 1      # tests/mean_test.c:219:27
	vaddss	%xmm6, %xmm1, %xmm1
.Ltmp139:
	#DEBUG_VALUE: count <- %XMM1
	.loc	2 220 25                # tests/mean_test.c:220:25
	vaddss	%xmm3, %xmm2, %xmm2
.Ltmp140:
	#DEBUG_VALUE: sum <- %XMM2
.LBB1_44:                               # %.lr.ph23
                                        #   in Loop: Header=BB1_42 Depth=3
	#DEBUG_VALUE: n <- %XMM3
	.loc	2 217 27                # tests/mean_test.c:217:27
	movzwl	-2(%rdi,%r14,2), %edx
	vcvtsi2ssl	%edx, %xmm0, %xmm3
.Ltmp141:
	.loc	2 218 23                # tests/mean_test.c:218:23
	vucomiss	%xmm7, %xmm3
	setb	%dl
	.loc	2 218 43 is_stmt 0 discriminator 1 # tests/mean_test.c:218:43
	vucomiss	%xmm3, %xmm4
	setb	%bl
	.loc	2 218 38                # tests/mean_test.c:218:38
	orb	%dl, %bl
	jne	.LBB1_46
# BB#45:                                # %.lr.ph23
                                        #   in Loop: Header=BB1_42 Depth=3
	.loc	2 219 27 is_stmt 1      # tests/mean_test.c:219:27
.Ltmp142:
	vaddss	%xmm6, %xmm1, %xmm1
	.loc	2 220 25                # tests/mean_test.c:220:25
	vaddss	%xmm3, %xmm2, %xmm2
.Ltmp143:
.LBB1_46:                               # %.lr.ph23
                                        #   in Loop: Header=BB1_42 Depth=3
	.loc	2 216 13 discriminator 1 # tests/mean_test.c:216:13
	addq	$16, %rcx
	addq	$-2, %rax
	jne	.LBB1_42
.Ltmp144:
.LBB1_47:                               # %._crit_edge24
                                        #   in Loop: Header=BB1_28 Depth=2
	.loc	2 223 32                # tests/mean_test.c:223:32
	vdivss	%xmm1, %xmm2, %xmm3
.Ltmp145:
	#DEBUG_VALUE: a <- 0
	#DEBUG_VALUE: ss <- 0.000000e+00
	#DEBUG_VALUE: clipped_mean <- %XMM3
	.loc	2 225 13 discriminator 1 # tests/mean_test.c:225:13
	testb	%r13b, %r13b
	jne	.LBB1_30
.Ltmp146:
# BB#48:                                # %.lr.ph29.preheader
                                        #   in Loop: Header=BB1_28 Depth=2
	#DEBUG_VALUE: clipped_mean <- %XMM3
	vxorps	%xmm0, %xmm0, %xmm0
	movl	$0, %ecx
	testq	%r10, %r10
	je	.LBB1_53
.Ltmp147:
# BB#49:                                # %.lr.ph29.prol
                                        #   in Loop: Header=BB1_28 Depth=2
	#DEBUG_VALUE: clipped_mean <- %XMM3
	.loc	2 226 34                # tests/mean_test.c:226:34
	movq	(%r15), %rax
	.loc	2 226 27 is_stmt 0      # tests/mean_test.c:226:27
	movzwl	-2(%rax,%r14,2), %eax
	vxorps	%xmm0, %xmm0, %xmm0
	vcvtsi2ssl	%eax, %xmm0, %xmm2
.Ltmp148:
	#DEBUG_VALUE: n <- %XMM2
	.loc	2 227 23 is_stmt 1      # tests/mean_test.c:227:23
	vucomiss	%xmm7, %xmm2
	vxorps	%xmm0, %xmm0, %xmm0
	jb	.LBB1_52
.Ltmp149:
# BB#50:                                # %.lr.ph29.prol
                                        #   in Loop: Header=BB1_28 Depth=2
	#DEBUG_VALUE: clipped_mean <- %XMM3
	#DEBUG_VALUE: n <- %XMM2
	vucomiss	%xmm2, %xmm4
	movl	$1, %ecx
	jb	.LBB1_53
.Ltmp150:
# BB#51:                                #   in Loop: Header=BB1_28 Depth=2
	#DEBUG_VALUE: n <- %XMM2
	#DEBUG_VALUE: clipped_mean <- %XMM3
	.loc	2 228 36                # tests/mean_test.c:228:36
	vsubss	%xmm3, %xmm2, %xmm0
	.loc	2 228 34 is_stmt 0      # tests/mean_test.c:228:34
	vcvtss2sd	%xmm0, %xmm0, %xmm0
.Ltmp151:
	#DEBUG_VALUE: dev <- %XMM0
	.loc	2 229 31 is_stmt 1      # tests/mean_test.c:229:31
	vmulsd	%xmm0, %xmm0, %xmm0
.Ltmp152:
	.loc	2 229 24 is_stmt 0      # tests/mean_test.c:229:24
	vaddsd	.LCPI1_14(%rip), %xmm0, %xmm0
.Ltmp153:
.LBB1_52:                               # %.lr.ph29.preheader.split
                                        #   in Loop: Header=BB1_28 Depth=2
	#DEBUG_VALUE: clipped_mean <- %XMM3
	#DEBUG_VALUE: n <- %XMM2
	#DEBUG_VALUE: ss <- %XMM0
	movl	$1, %ecx
.Ltmp154:
.LBB1_53:                               # %.lr.ph29.preheader.split
                                        #   in Loop: Header=BB1_28 Depth=2
	#DEBUG_VALUE: clipped_mean <- %XMM3
	cmpq	$0, -240(%rbp)          # 8-byte Folded Reload
	je	.LBB1_30
.Ltmp155:
# BB#54:                                # %.lr.ph29.preheader.split.split
                                        #   in Loop: Header=BB1_28 Depth=2
	#DEBUG_VALUE: clipped_mean <- %XMM3
	.loc	2 226 34 is_stmt 1      # tests/mean_test.c:226:34
	movq	%r12, %rax
	subq	%rcx, %rax
	movq	-264(%rbp), %rdx        # 8-byte Reload
	leaq	(%rdx,%rcx,8), %rcx
.Ltmp156:
	.align	16, 0x90
.LBB1_55:                               # %.lr.ph29
                                        #   Parent Loop BB1_27 Depth=1
                                        #     Parent Loop BB1_28 Depth=2
                                        # =>    This Inner Loop Header: Depth=3
	movq	-8(%rcx), %rdx
	.loc	2 226 27 is_stmt 0      # tests/mean_test.c:226:27
	movzwl	-2(%rdx,%r14,2), %edx
	vcvtsi2ssl	%edx, %xmm0, %xmm2
.Ltmp157:
	#DEBUG_VALUE: n <- %XMM2
	.loc	2 227 23 is_stmt 1      # tests/mean_test.c:227:23
	vucomiss	%xmm7, %xmm2
	jb	.LBB1_58
.Ltmp158:
# BB#56:                                # %.lr.ph29
                                        #   in Loop: Header=BB1_55 Depth=3
	#DEBUG_VALUE: n <- %XMM2
	vucomiss	%xmm2, %xmm4
	jb	.LBB1_58
.Ltmp159:
# BB#57:                                #   in Loop: Header=BB1_55 Depth=3
	#DEBUG_VALUE: n <- %XMM2
	.loc	2 228 36                # tests/mean_test.c:228:36
	vsubss	%xmm3, %xmm2, %xmm2
.Ltmp160:
	.loc	2 228 34 is_stmt 0      # tests/mean_test.c:228:34
	vcvtss2sd	%xmm2, %xmm2, %xmm2
.Ltmp161:
	#DEBUG_VALUE: dev <- %XMM2
	.loc	2 229 31 is_stmt 1      # tests/mean_test.c:229:31
	vmulsd	%xmm2, %xmm2, %xmm2
.Ltmp162:
	.loc	2 229 24 is_stmt 0      # tests/mean_test.c:229:24
	vaddsd	%xmm2, %xmm0, %xmm0
.Ltmp163:
	#DEBUG_VALUE: ss <- %XMM0
.LBB1_58:                               # %.lr.ph29.183
                                        #   in Loop: Header=BB1_55 Depth=3
	.loc	2 226 34 is_stmt 1      # tests/mean_test.c:226:34
	movq	(%rcx), %rdx
	.loc	2 226 27 is_stmt 0      # tests/mean_test.c:226:27
	movzwl	-2(%rdx,%r14,2), %edx
	vcvtsi2ssl	%edx, %xmm0, %xmm2
	.loc	2 227 23 is_stmt 1      # tests/mean_test.c:227:23
.Ltmp164:
	vucomiss	%xmm7, %xmm2
	jb	.LBB1_61
# BB#59:                                # %.lr.ph29.183
                                        #   in Loop: Header=BB1_55 Depth=3
	vucomiss	%xmm2, %xmm4
	jb	.LBB1_61
# BB#60:                                #   in Loop: Header=BB1_55 Depth=3
	.loc	2 228 36                # tests/mean_test.c:228:36
.Ltmp165:
	vsubss	%xmm3, %xmm2, %xmm2
	.loc	2 228 34 is_stmt 0      # tests/mean_test.c:228:34
	vcvtss2sd	%xmm2, %xmm2, %xmm2
	.loc	2 229 31 is_stmt 1      # tests/mean_test.c:229:31
	vmulsd	%xmm2, %xmm2, %xmm2
	.loc	2 229 24 is_stmt 0      # tests/mean_test.c:229:24
	vaddsd	%xmm2, %xmm0, %xmm0
.Ltmp166:
.LBB1_61:                               #   in Loop: Header=BB1_55 Depth=3
	.loc	2 225 13 is_stmt 1 discriminator 1 # tests/mean_test.c:225:13
	addq	$16, %rcx
	addq	$-2, %rax
	jne	.LBB1_55
.Ltmp167:
	.align	16, 0x90
.LBB1_30:                               # %._crit_edge30
                                        #   in Loop: Header=BB1_28 Depth=2
	.loc	2 232 35                # tests/mean_test.c:232:35
	vcvtss2sd	%xmm1, %xmm1, %xmm1
	.loc	2 232 33 is_stmt 0      # tests/mean_test.c:232:33
	vdivsd	%xmm1, %xmm0, %xmm1
	.loc	2 232 25 discriminator 1 # tests/mean_test.c:232:25
	vxorps	%xmm0, %xmm0, %xmm0
	vsqrtsd	%xmm1, %xmm0, %xmm0
	.loc	2 232 20                # tests/mean_test.c:232:20
	vucomisd	%xmm0, %xmm0
	jnp	.LBB1_32
# BB#31:                                # %call.sqrt
                                        #   in Loop: Header=BB1_28 Depth=2
	vmovapd	%xmm1, %xmm0
	movq	%r8, %rbx
	vmovss	%xmm7, -224(%rbp)       # 4-byte Spill
	vmovss	%xmm4, -232(%rbp)       # 4-byte Spill
	movq	%r11, -248(%rbp)        # 8-byte Spill
	vmovss	%xmm3, -256(%rbp)       # 4-byte Spill
	callq	sqrt@PLT
	vmovss	-256(%rbp), %xmm3       # 4-byte Reload
                                        # xmm3 = mem[0],zero,zero,zero
	movq	-248(%rbp), %r11        # 8-byte Reload
	vmovss	-232(%rbp), %xmm4       # 4-byte Reload
                                        # xmm4 = mem[0],zero,zero,zero
	vmovss	-224(%rbp), %xmm7       # 4-byte Reload
                                        # xmm7 = mem[0],zero,zero,zero
	.loc	2 219 27 is_stmt 1      # tests/mean_test.c:219:27
.Ltmp168:
	vmovss	.LCPI1_13(%rip), %xmm6  # xmm6 = mem[0],zero,zero,zero
	movq	-288(%rbp), %r10        # 8-byte Reload
	vmovsd	-280(%rbp), %xmm5       # 8-byte Reload
                                        # xmm5 = mem[0],zero
	vmovsd	-272(%rbp), %xmm8       # 8-byte Reload
                                        # xmm8 = mem[0],zero
	movq	%rbx, %r8
.Ltmp169:
.LBB1_32:                               # %._crit_edge30.split
                                        #   in Loop: Header=BB1_28 Depth=2
	.loc	2 233 36                # tests/mean_test.c:233:36
	vcvtss2sd	%xmm3, %xmm3, %xmm1
.Ltmp170:
	#DEBUG_VALUE: sd <- %XMM0
	.loc	2 233 62 is_stmt 0      # tests/mean_test.c:233:62
	vmulsd	%xmm5, %xmm0, %xmm2
	.loc	2 233 49                # tests/mean_test.c:233:49
	vsubsd	%xmm2, %xmm1, %xmm2
	.loc	2 233 28                # tests/mean_test.c:233:28
	vcvtsd2ss	%xmm2, %xmm2, %xmm2
.Ltmp171:
	#DEBUG_VALUE: new_lb <- %XMM2
	.loc	2 234 62 is_stmt 1      # tests/mean_test.c:234:62
	vmulsd	%xmm8, %xmm0, %xmm0
.Ltmp172:
	.loc	2 234 49 is_stmt 0      # tests/mean_test.c:234:49
	vaddsd	%xmm0, %xmm1, %xmm0
	.loc	2 234 28                # tests/mean_test.c:234:28
	vcvtsd2ss	%xmm0, %xmm0, %xmm0
.Ltmp173:
	#DEBUG_VALUE: new_ub <- %XMM0
	.loc	2 236 27 is_stmt 1      # tests/mean_test.c:236:27
	vmaxss	%xmm2, %xmm7, %xmm7
.Ltmp174:
	#DEBUG_VALUE: lower_bound <- %XMM7
	.loc	2 237 27                # tests/mean_test.c:237:27
	vminss	%xmm0, %xmm4, %xmm4
.Ltmp175:
	#DEBUG_VALUE: upper_bound <- %XMM4
	.loc	2 214 49 discriminator 3 # tests/mean_test.c:214:49
	incq	%r11
.Ltmp176:
	#DEBUG_VALUE: it <- %R11
	.loc	2 214 32 is_stmt 0 discriminator 1 # tests/mean_test.c:214:32
	cmpq	%r8, %r11
	jne	.LBB1_28
.Ltmp177:
.LBB1_33:                               # %._crit_edge36
                                        #   in Loop: Header=BB1_27 Depth=1
	.loc	2 212 9 is_stmt 1       # tests/mean_test.c:212:9
	leaq	-1(%r14), %rsi
.Ltmp178:
	#DEBUG_VALUE: test_mean:i <- %RSI
	.loc	2 239 29                # tests/mean_test.c:239:29
	movq	-296(%rbp), %rax        # 8-byte Reload
	vmovss	-4(%rax,%r14,4), %xmm1  # xmm1 = mem[0],zero,zero,zero
.Ltmp179:
	.loc	2 239 13 is_stmt 0      # tests/mean_test.c:239:13
	vucomiss	%xmm1, %xmm3
	jne	.LBB1_62
	jnp	.LBB1_67
	jmp	.LBB1_62
.Ltmp180:
.LBB1_67:                               #   in Loop: Header=BB1_27 Depth=1
	#DEBUG_VALUE: test_mean:i <- %RSI
	movq	%rsi, %r14
	.loc	2 247 5 is_stmt 1 discriminator 1 # tests/mean_test.c:247:5
	testq	%rsi, %rsi
	jne	.LBB1_27
.Ltmp181:
# BB#68:
	#DEBUG_VALUE: test_mean:i <- %RSI
	.loc	2 249 8                 # tests/mean_test.c:249:8
	subq	$48, %rsp
	movq	-104(%rbp), %rax
	movq	%rax, 32(%rsp)
	vmovups	-136(%rbp), %ymm0
	vmovups	%ymm0, (%rsp)
	vzeroupper
	callq	check_canary_page@PLT
	addq	$48, %rsp
.Ltmp182:
	.loc	2 249 8 is_stmt 0       # tests/mean_test.c:249:8
	testl	%eax, %eax
	js	.LBB1_69
.Ltmp183:
# BB#70:
	#DEBUG_VALUE: test_mean:i <- %RSI
	.loc	2 254 5 is_stmt 1       # tests/mean_test.c:254:5
	subq	$48, %rsp
	movq	-64(%rbp), %rax
	movq	%rax, 32(%rsp)
	vmovups	-96(%rbp), %ymm0
	vmovups	%ymm0, (%rsp)
	vzeroupper
	callq	free_canary_page@PLT
	addq	$48, %rsp
	.loc	2 255 5                 # tests/mean_test.c:255:5
	subq	$48, %rsp
	movq	-104(%rbp), %rax
	movq	%rax, 32(%rsp)
	vmovups	-136(%rbp), %ymm0
	vmovups	%ymm0, (%rsp)
	vzeroupper
	callq	free_canary_page@PLT
	.loc	2 256 1                 # tests/mean_test.c:256:1
	leaq	-40(%rbp), %rsp
	popq	%rbx
	popq	%r12
	popq	%r13
	popq	%r14
	popq	%r15
	popq	%rbp
	retq
.Ltmp184:
.LBB1_62:
	#DEBUG_VALUE: test_mean:i <- %RSI
	.loc	2 240 44                # tests/mean_test.c:240:44
	vcvtss2sd	%xmm3, %xmm3, %xmm0
	.loc	2 240 58 is_stmt 0      # tests/mean_test.c:240:58
	vcvtss2sd	%xmm1, %xmm1, %xmm1
	.loc	2 240 13                # tests/mean_test.c:240:13
	leaq	.L.str.14(%rip), %rdi
	movb	$2, %al
	callq	printf@PLT
.Ltmp185:
	#DEBUG_VALUE: a <- 0
	.loc	2 241 13 is_stmt 1 discriminator 1 # tests/mean_test.c:241:13
	testb	%r13b, %r13b
	jne	.LBB1_65
.Ltmp186:
# BB#63:
	#DEBUG_VALUE: test_mean:i <- %RSI
	.loc	2 242 17                # tests/mean_test.c:242:17
	leaq	.L.str.15(%rip), %rbx
.Ltmp187:
	.align	16, 0x90
.LBB1_64:                               # %.lr.ph
                                        # =>This Inner Loop Header: Depth=1
	.loc	2 242 31 is_stmt 0      # tests/mean_test.c:242:31
	movq	(%r15), %rax
	movzwl	-2(%rax,%r14,2), %esi
	.loc	2 242 17                # tests/mean_test.c:242:17
	xorl	%eax, %eax
	movq	%rbx, %rdi
	callq	printf@PLT
.Ltmp188:
	.loc	2 241 13 is_stmt 1 discriminator 1 # tests/mean_test.c:241:13
	addq	$8, %r15
	decq	%r12
	jne	.LBB1_64
.Ltmp189:
.LBB1_65:                               # %._crit_edge
	.loc	2 244 13                # tests/mean_test.c:244:13
	leaq	.Lstr.20(%rip), %rdi
.LBB1_66:                               # %._crit_edge
	callq	puts@PLT
	.loc	2 245 13                # tests/mean_test.c:245:13
	movl	$1, %edi
	callq	exit@PLT
.Ltmp190:
.LBB1_71:
	#DEBUG_VALUE: test_mean:array_count <- %R12
	#DEBUG_VALUE: test_mean:bin_count <- %R14
	#DEBUG_VALUE: test_mean:offset0 <- %R13
	#DEBUG_VALUE: test_mean:offset1 <- %RBX
	#DEBUG_VALUE: test_mean:sigma_lower <- [%RBP+-280]
	#DEBUG_VALUE: test_mean:sigma_upper <- [%RBP+-272]
	#DEBUG_VALUE: test_mean:max_iter <- [%RBP+-256]
	.loc	2 143 5 discriminator 3 # tests/mean_test.c:143:5
	leaq	.L.str.3(%rip), %rdi
	leaq	.L.str.4(%rip), %rsi
	leaq	.L__PRETTY_FUNCTION__.test_mean(%rip), %rcx
	movl	$143, %edx
	callq	__assert_fail@PLT
.Ltmp191:
.LBB1_72:
	#DEBUG_VALUE: test_mean:max_iter <- [%RBP+-256]
	#DEBUG_VALUE: test_mean:sigma_upper <- [%RBP+-272]
	#DEBUG_VALUE: test_mean:sigma_lower <- [%RBP+-280]
	#DEBUG_VALUE: test_mean:offset1 <- %RBX
	#DEBUG_VALUE: test_mean:offset0 <- %R13
	#DEBUG_VALUE: test_mean:bin_count <- %R14
	#DEBUG_VALUE: test_mean:array_count <- %R12
	.loc	2 144 5 discriminator 3 # tests/mean_test.c:144:5
	leaq	.L.str.5(%rip), %rdi
	leaq	.L.str.4(%rip), %rsi
	leaq	.L__PRETTY_FUNCTION__.test_mean(%rip), %rcx
	movl	$144, %edx
	callq	__assert_fail@PLT
.Ltmp192:
.LBB1_73:
	#DEBUG_VALUE: test_mean:array_count <- %R12
	#DEBUG_VALUE: test_mean:bin_count <- %R14
	#DEBUG_VALUE: test_mean:offset0 <- %R13
	#DEBUG_VALUE: test_mean:offset1 <- %RBX
	#DEBUG_VALUE: test_mean:sigma_lower <- [%RBP+-280]
	#DEBUG_VALUE: test_mean:sigma_upper <- [%RBP+-272]
	#DEBUG_VALUE: test_mean:max_iter <- [%RBP+-256]
	.loc	2 145 5 discriminator 2 # tests/mean_test.c:145:5
	leaq	.L.str.6(%rip), %rdi
	leaq	.L.str.4(%rip), %rsi
	leaq	.L__PRETTY_FUNCTION__.test_mean(%rip), %rcx
	movl	$145, %edx
	callq	__assert_fail@PLT
.Ltmp193:
.LBB1_74:
	#DEBUG_VALUE: test_mean:max_iter <- [%RBP+-256]
	#DEBUG_VALUE: test_mean:sigma_upper <- [%RBP+-272]
	#DEBUG_VALUE: test_mean:sigma_lower <- [%RBP+-280]
	#DEBUG_VALUE: test_mean:offset1 <- %RBX
	#DEBUG_VALUE: test_mean:offset0 <- %R13
	#DEBUG_VALUE: test_mean:bin_count <- %R14
	#DEBUG_VALUE: test_mean:array_count <- %R12
	.loc	2 146 5 discriminator 2 # tests/mean_test.c:146:5
	leaq	.L.str.7(%rip), %rdi
	leaq	.L.str.4(%rip), %rsi
	leaq	.L__PRETTY_FUNCTION__.test_mean(%rip), %rcx
	movl	$146, %edx
	callq	__assert_fail@PLT
.Ltmp194:
.LBB1_15:
	#DEBUG_VALUE: test_mean:input_page <- [%RDI+0]
	.loc	2 164 9                 # tests/mean_test.c:164:9
	leaq	.L.str.8(%rip), %rdi
.Ltmp195:
	jmp	.LBB1_16
.Ltmp196:
.LBB1_75:
	#DEBUG_VALUE: u16_input:result [bit_piece offset=64 size=64] <- %RAX
	#DEBUG_VALUE: print_timer_elapsed:ns_per_item <- %XMM0
	#DEBUG_VALUE: print_timer_elapsed:ms <- %RSI
	#DEBUG_VALUE: ms_elapsed:before [bit_piece offset=0 size=64] <- %R13
	#DEBUG_VALUE: print_timer_elapsed:before [bit_piece offset=0 size=64] <- %R13
	#DEBUG_VALUE: print_timer_elapsed:item_count <- %RBX
	#DEBUG_VALUE: test_mean:status <- [%RBP+-224]
	.loc	2 206 9                 # tests/mean_test.c:206:9
	leaq	.L.str.13(%rip), %rdi
.Ltmp197:
.LBB1_16:
	.loc	2 164 9                 # tests/mean_test.c:164:9
	callq	perror@PLT
	.loc	2 165 9                 # tests/mean_test.c:165:9
	movl	$1, %edi
	callq	exit@PLT
.Ltmp198:
.LBB1_69:
	#DEBUG_VALUE: test_mean:i <- %RSI
	.loc	2 250 9                 # tests/mean_test.c:250:9
	leaq	.Lstr.19(%rip), %rdi
	jmp	.LBB1_66
.Ltmp199:
.Lfunc_end1:
	.size	test_mean, .Lfunc_end1-test_mean
	.cfi_endproc
	.file	8 "include" "mediocre.h"

	.align	16, 0x90
	.type	u16_input_loop,@function
u16_input_loop:                         # @u16_input_loop
.Lfunc_begin2:
	.loc	2 32 0                  # tests/mean_test.c:32:0
	.cfi_startproc
# BB#0:
	pushq	%rbp
.Ltmp200:
	.cfi_def_cfa_offset 16
	pushq	%r15
.Ltmp201:
	.cfi_def_cfa_offset 24
	pushq	%r14
.Ltmp202:
	.cfi_def_cfa_offset 32
	pushq	%r13
.Ltmp203:
	.cfi_def_cfa_offset 40
	pushq	%r12
.Ltmp204:
	.cfi_def_cfa_offset 48
	pushq	%rbx
.Ltmp205:
	.cfi_def_cfa_offset 56
	subq	$88, %rsp
.Ltmp206:
	.cfi_def_cfa_offset 144
.Ltmp207:
	.cfi_offset %rbx, -56
.Ltmp208:
	.cfi_offset %r12, -48
.Ltmp209:
	.cfi_offset %r13, -40
.Ltmp210:
	.cfi_offset %r14, -32
.Ltmp211:
	.cfi_offset %r15, -24
.Ltmp212:
	.cfi_offset %rbp, -16
	#DEBUG_VALUE: u16_input_loop:dimension [bit_piece offset=0 size=64] <- %RDX
	#DEBUG_VALUE: u16_input_loop:dimension [bit_piece offset=64 size=64] <- %RCX
	#DEBUG_VALUE: u16_input_loop:control <- %RDI
	#DEBUG_VALUE: u16_input_loop:user_data <- %RSI
	movq	%rsi, %r12
.Ltmp213:
	#DEBUG_VALUE: u16_input_loop:user_data <- %R12
	movq	%rdi, %r14
.Ltmp214:
	#DEBUG_VALUE: u16_input_loop:control <- %R14
	leaq	48(%rsp), %rdi
	.loc	2 38 5 prologue_end     # tests/mean_test.c:38:5
.Ltmp215:
	movq	%r14, %rsi
	callq	mediocre_input_control_get@PLT
	.loc	2 38 5 is_stmt 0 discriminator 1 # tests/mean_test.c:38:5
.Ltmp216:
	cmpq	$0, 48(%rsp)
	jne	.LBB2_12
.Ltmp217:
# BB#1:                                 # %.preheader.lr.ph
	#DEBUG_VALUE: u16_input_loop:control <- %R14
	#DEBUG_VALUE: u16_input_loop:user_data <- %R12
	#DEBUG_VALUE: u16_input_loop:dimension [bit_piece offset=64 size=64] <- %RCX
	.loc	2 38 5 discriminator 3  # tests/mean_test.c:38:5
	movq	80(%rsp), %r13
.Ltmp218:
	#DEBUG_VALUE: u16_input_loop:command [bit_piece offset=256 size=64] <- %R13
	movq	72(%rsp), %r11
.Ltmp219:
	#DEBUG_VALUE: u16_input_loop:command [bit_piece offset=192 size=64] <- %R11
	movq	56(%rsp), %r8
.Ltmp220:
	#DEBUG_VALUE: u16_input_loop:command [bit_piece offset=64 size=64] <- %R8
	movq	64(%rsp), %r15
.Ltmp221:
	#DEBUG_VALUE: u16_input_loop:command [bit_piece offset=128 size=64] <- %R15
	.align	16, 0x90
.LBB2_2:                                # %.preheader
                                        # =>This Loop Header: Depth=1
                                        #     Child Loop BB2_4 Depth 2
                                        #       Child Loop BB2_9 Depth 3
	.loc	2 44 42 is_stmt 1 discriminator 1 # tests/mean_test.c:44:42
	testq	%r15, %r15
	je	.LBB2_11
# BB#3:                                 # %.lr.ph4
                                        #   in Loop: Header=BB2_2 Depth=1
	.loc	8 266 13                # include/mediocre.h:266:13
.Ltmp222:
	movl	%r11d, %r9d
	andl	$1, %r9d
	xorl	%ecx, %ecx
.Ltmp223:
	.align	16, 0x90
.LBB2_4:                                #   Parent Loop BB2_2 Depth=1
                                        # =>  This Loop Header: Depth=2
                                        #       Child Loop BB2_9 Depth 3
	testq	%r11, %r11
.Ltmp224:
	#DEBUG_VALUE: n <- 0
	je	.LBB2_10
# BB#5:                                 # %.lr.ph.preheader
                                        #   in Loop: Header=BB2_4 Depth=2
	.loc	2 45 44                 # tests/mean_test.c:45:44
	movq	(%r12,%rcx,8), %r10
	movl	$0, %edx
	testq	%r9, %r9
	je	.LBB2_7
# BB#6:                                 # %.lr.ph.prol
                                        #   in Loop: Header=BB2_4 Depth=2
	.loc	8 278 13                # include/mediocre.h:278:13
.Ltmp225:
	movq	%rcx, %rax
	shlq	$5, %rax
.Ltmp226:
	#DEBUG_VALUE: mediocre_chunk_ptr:chunk_ptr <- %R13
	#DEBUG_VALUE: mediocre_chunk_ptr:width_axis <- 1
	.loc	2 50 22                 # tests/mean_test.c:50:22
	movzwl	(%r10,%r8,2), %edi
	vcvtsi2ssl	%edi, %xmm0, %xmm0
	.loc	2 50 20 is_stmt 0       # tests/mean_test.c:50:20
	vmovss	%xmm0, (%r13,%rax)
.Ltmp227:
	#DEBUG_VALUE: n <- 1
	movl	$1, %edx
.Ltmp228:
.LBB2_7:                                # %.lr.ph.preheader.split
                                        #   in Loop: Header=BB2_4 Depth=2
	cmpq	$1, %r11
	je	.LBB2_10
# BB#8:                                 # %.lr.ph.preheader.split.split
                                        #   in Loop: Header=BB2_4 Depth=2
	.loc	8 266 13 is_stmt 1      # include/mediocre.h:266:13
.Ltmp229:
	leaq	2(%r10,%r8,2), %rdi
	.align	16, 0x90
.LBB2_9:                                # %.lr.ph
                                        #   Parent Loop BB2_2 Depth=1
                                        #     Parent Loop BB2_4 Depth=2
                                        # =>    This Inner Loop Header: Depth=3
	.loc	8 272 47                # include/mediocre.h:272:47
	movq	%rdx, %rax
	shrq	$3, %rax
	.loc	8 272 52 is_stmt 0      # include/mediocre.h:272:52
	imulq	%r15, %rax
	.loc	8 272 32                # include/mediocre.h:272:32
	shlq	$5, %rax
	addq	%r13, %rax
.Ltmp230:
	#DEBUG_VALUE: mediocre_chunk_ptr:chunk_ptr <- %RAX
	.loc	8 276 36 is_stmt 1      # include/mediocre.h:276:36
	movq	%rcx, %rbx
	shlq	$5, %rbx
	addq	%rbx, %rax
.Ltmp231:
	#DEBUG_VALUE: mediocre_chunk_ptr:vector_ptr <- %RAX
	.loc	8 278 47                # include/mediocre.h:278:47
	movl	%edx, %esi
	andl	$7, %esi
.Ltmp232:
	.loc	2 50 22                 # tests/mean_test.c:50:22
	movzwl	-2(%rdi,%rdx,2), %ebp
	vcvtsi2ssl	%ebp, %xmm0, %xmm0
	.loc	2 50 20 is_stmt 0       # tests/mean_test.c:50:20
	vmovss	%xmm0, (%rax,%rsi,4)
.Ltmp233:
	.loc	2 47 44 is_stmt 1 discriminator 3 # tests/mean_test.c:47:44
	leaq	1(%rdx), %rax
.Ltmp234:
	#DEBUG_VALUE: mediocre_chunk_ptr:width_axis <- %RAX
	#DEBUG_VALUE: n <- %RAX
	.loc	8 272 47                # include/mediocre.h:272:47
	movq	%rax, %rsi
	shrq	$3, %rsi
	.loc	8 272 52 is_stmt 0      # include/mediocre.h:272:52
	imulq	%r15, %rsi
	.loc	8 272 32                # include/mediocre.h:272:32
	shlq	$5, %rsi
	addq	%r13, %rsi
	.loc	8 276 36 is_stmt 1      # include/mediocre.h:276:36
	addq	%rbx, %rsi
	.loc	8 278 47                # include/mediocre.h:278:47
	andl	$7, %eax
.Ltmp235:
	.loc	2 50 22                 # tests/mean_test.c:50:22
	movzwl	(%rdi,%rdx,2), %ebp
	vxorps	%xmm0, %xmm0, %xmm0
	vcvtsi2ssl	%ebp, %xmm0, %xmm0
	.loc	2 50 20 is_stmt 0       # tests/mean_test.c:50:20
	vmovss	%xmm0, (%rsi,%rax,4)
.Ltmp236:
	.loc	2 47 44 is_stmt 1 discriminator 3 # tests/mean_test.c:47:44
	addq	$2, %rdx
	.loc	2 47 34 is_stmt 0 discriminator 1 # tests/mean_test.c:47:34
	cmpq	%rdx, %r11
	jne	.LBB2_9
.Ltmp237:
.LBB2_10:                               # %._crit_edge
                                        #   in Loop: Header=BB2_4 Depth=2
	.loc	2 44 58 is_stmt 1 discriminator 3 # tests/mean_test.c:44:58
	incq	%rcx
.Ltmp238:
	#DEBUG_VALUE: array_i <- %RCX
	#DEBUG_VALUE: mediocre_chunk_ptr:combine_axis <- %RCX
	.loc	2 44 42 is_stmt 0 discriminator 1 # tests/mean_test.c:44:42
	cmpq	%r15, %rcx
	jne	.LBB2_4
.Ltmp239:
.LBB2_11:                               # %._crit_edge5
                                        #   in Loop: Header=BB2_2 Depth=1
	leaq	8(%rsp), %rdi
	.loc	2 38 5 is_stmt 1 discriminator 2 # tests/mean_test.c:38:5
	movq	%r14, %rsi
	callq	mediocre_input_control_get@PLT
	.loc	2 38 5 is_stmt 0 discriminator 4 # tests/mean_test.c:38:5
.Ltmp240:
	movq	16(%rsp), %r8
.Ltmp241:
	#DEBUG_VALUE: u16_input_loop:command [bit_piece offset=64 size=64] <- %R8
	movq	24(%rsp), %r15
.Ltmp242:
	#DEBUG_VALUE: mediocre_chunk_ptr:combine_count <- %R15
	#DEBUG_VALUE: u16_input_loop:command [bit_piece offset=128 size=64] <- %R15
	movq	32(%rsp), %r11
.Ltmp243:
	#DEBUG_VALUE: u16_input_loop:command [bit_piece offset=192 size=64] <- %R11
	movq	40(%rsp), %r13
.Ltmp244:
	#DEBUG_VALUE: mediocre_chunk_ptr:chunks <- %R13
	#DEBUG_VALUE: u16_input_loop:command [bit_piece offset=256 size=64] <- %R13
	.loc	2 38 5 discriminator 1  # tests/mean_test.c:38:5
	cmpq	$0, 8(%rsp)
	je	.LBB2_2
.Ltmp245:
.LBB2_12:                               # %._crit_edge10
	.loc	2 55 5 is_stmt 1        # tests/mean_test.c:55:5
	xorl	%eax, %eax
	addq	$88, %rsp
	popq	%rbx
	popq	%r12
	popq	%r13
	popq	%r14
	popq	%r15
	popq	%rbp
	retq
.Ltmp246:
.Lfunc_end2:
	.size	u16_input_loop, .Lfunc_end2-u16_input_loop
	.cfi_endproc
	.file	9 "/usr/lib/llvm-3.8/bin/../lib/clang/3.8.0/include" "avxintrin.h"

	.align	16, 0x90
	.type	no_op,@function
no_op:                                  # @no_op
.Lfunc_begin3:
	.loc	2 58 0                  # tests/mean_test.c:58:0
	.cfi_startproc
# BB#0:
	#DEBUG_VALUE: no_op:ignored <- %RDI
	.loc	2 60 1 prologue_end     # tests/mean_test.c:60:1
	retq
.Ltmp247:
.Lfunc_end3:
	.size	no_op, .Lfunc_end3-no_op
	.cfi_endproc

	.type	generator,@object       # @generator
	.local	generator
	.comm	generator,8,8
	.type	.L.str,@object          # @.str
	.section	.rodata.str1.1,"aMS",@progbits,1
.L.str:
	.asciz	"Seed = %llu\n"
	.size	.L.str, 13

	.type	.L.str.1,@object        # @.str.1
.L.str.1:
	.asciz	"\tAveraging %zi arrays of %zi integers.\n"
	.size	.L.str.1, 40

	.type	.L.str.2,@object        # @.str.2
.L.str.2:
	.asciz	"\tinput offset %zi output offset %zi.\n"
	.size	.L.str.2, 38

	.type	.L.str.3,@object        # @.str.3
.L.str.3:
	.asciz	"min_array_count <= array_count && array_count <= max_array_count"
	.size	.L.str.3, 65

	.type	.L.str.4,@object        # @.str.4
.L.str.4:
	.asciz	"tests/mean_test.c"
	.size	.L.str.4, 18

	.type	.L__PRETTY_FUNCTION__.test_mean,@object # @__PRETTY_FUNCTION__.test_mean
.L__PRETTY_FUNCTION__.test_mean:
	.asciz	"void test_mean(size_t, size_t, size_t, size_t, double, double, size_t)"
	.size	.L__PRETTY_FUNCTION__.test_mean, 71

	.type	.L.str.5,@object        # @.str.5
.L.str.5:
	.asciz	"min_bin_count <= bin_count && bin_count <= max_bin_count"
	.size	.L.str.5, 57

	.type	.L.str.6,@object        # @.str.6
.L.str.6:
	.asciz	"offset0 <= max_offset"
	.size	.L.str.6, 22

	.type	.L.str.7,@object        # @.str.7
.L.str.7:
	.asciz	"offset1 <= max_offset"
	.size	.L.str.7, 22

	.type	input_data,@object      # @input_data
	.local	input_data
	.comm	input_data,600000032,16
	.type	.L.str.8,@object        # @.str.8
.L.str.8:
	.asciz	"test_mean init_canary_page"
	.size	.L.str.8, 27

	.type	.L.str.9,@object        # @.str.9
.L.str.9:
	.asciz	"sigma[-%f, %f] max_iter %zi\n"
	.size	.L.str.9, 29

	.type	.L.str.10,@object       # @.str.10
.L.str.10:
	.asciz	"thread_count = %i\n"
	.size	.L.str.10, 19

	.type	timer_begin,@object     # @timer_begin
	.local	timer_begin
	.comm	timer_begin,16,8
	.type	.L.str.11,@object       # @.str.11
.L.str.11:
	.asciz	"\033[36m\033[1mclipped mean: "
	.size	.L.str.11, 24

	.type	.L.str.13,@object       # @.str.13
.L.str.13:
	.asciz	"mediocre_clipped_mean_u16 failed"
	.size	.L.str.13, 33

	.type	.L.str.14,@object       # @.str.14
.L.str.14:
	.asciz	"[%zi] %f != %f\n["
	.size	.L.str.14, 17

	.type	.L.str.15,@object       # @.str.15
.L.str.15:
	.asciz	" %u"
	.size	.L.str.15, 4

	.type	get_shuffled_array_counts.numbers,@object # @get_shuffled_array_counts.numbers
	.local	get_shuffled_array_counts.numbers
	.comm	get_shuffled_array_counts.numbers,2400,16
	.type	get_shuffled_array_counts.init,@object # @get_shuffled_array_counts.init
	.local	get_shuffled_array_counts.init
	.comm	get_shuffled_array_counts.init,1,1
	.type	.L.str.18,@object       # @.str.18
.L.str.18:
	.asciz	"%lims elapsed (%4.2fns per item)."
	.size	.L.str.18, 34

	.type	.Lstr,@object           # @str
.Lstr:
	.asciz	"\033[0m"
	.size	.Lstr, 5

	.type	.Lstr.19,@object        # @str.19
	.section	.rodata.str1.16,"aMS",@progbits,1
	.align	16
.Lstr.19:
	.asciz	"Output buffer overrun."
	.size	.Lstr.19, 23

	.type	.Lstr.20,@object        # @str.20
	.section	.rodata.str1.1,"aMS",@progbits,1
.Lstr.20:
	.asciz	" ]"
	.size	.Lstr.20, 3

	.section	".note.GNU-stack","",@progbits