	.text
	.file	"tests/median_test.c"
	.file	1 "/usr/lib/llvm-3.8/bin/../lib/clang/3.8.0/include" "stddef.h"
	.file	2 "tests" "median_test.c"
	.file	3 "/usr/include" "stdint.h"
	.file	4 "/usr/include/x86_64-linux-gnu/bits" "types.h"
	.file	5 "/usr/include" "time.h"
	.file	6 "/usr/include/x86_64-linux-gnu/sys" "timeb.h"
	.section	.rodata.cst4,"aM",@progbits,4
	.align	4
.LCPI0_0:
	.long	1048576000              # float 0.25
.LCPI0_1:
	.long	1065353216              # float 1
.LCPI0_33:
	.long	1056964608              # float 0.5
.LCPI0_34:
	.long	4286578688              # float -Inf
.LCPI0_35:
	.long	2139095040              # float +Inf
	.section	.rodata,"a",@progbits
	.align	32
.LCPI0_2:
	.long	0                       # 0x0
	.long	1                       # 0x1
	.long	2                       # 0x2
	.long	3                       # 0x3
	.long	4                       # 0x4
	.long	5                       # 0x5
	.long	6                       # 0x6
	.long	7                       # 0x7
.LCPI0_3:
	.long	8                       # 0x8
	.long	9                       # 0x9
	.long	10                      # 0xa
	.long	11                      # 0xb
	.long	12                      # 0xc
	.long	13                      # 0xd
	.long	14                      # 0xe
	.long	15                      # 0xf
.LCPI0_4:
	.long	16                      # 0x10
	.long	17                      # 0x11
	.long	18                      # 0x12
	.long	19                      # 0x13
	.long	20                      # 0x14
	.long	21                      # 0x15
	.long	22                      # 0x16
	.long	23                      # 0x17
.LCPI0_5:
	.long	24                      # 0x18
	.long	25                      # 0x19
	.long	26                      # 0x1a
	.long	27                      # 0x1b
	.long	28                      # 0x1c
	.long	29                      # 0x1d
	.long	30                      # 0x1e
	.long	31                      # 0x1f
.LCPI0_6:
	.long	32                      # 0x20
	.long	33                      # 0x21
	.long	34                      # 0x22
	.long	35                      # 0x23
	.long	36                      # 0x24
	.long	37                      # 0x25
	.long	38                      # 0x26
	.long	39                      # 0x27
.LCPI0_7:
	.long	40                      # 0x28
	.long	41                      # 0x29
	.long	42                      # 0x2a
	.long	43                      # 0x2b
	.long	44                      # 0x2c
	.long	45                      # 0x2d
	.long	46                      # 0x2e
	.long	47                      # 0x2f
.LCPI0_8:
	.long	48                      # 0x30
	.long	49                      # 0x31
	.long	50                      # 0x32
	.long	51                      # 0x33
	.long	52                      # 0x34
	.long	53                      # 0x35
	.long	54                      # 0x36
	.long	55                      # 0x37
.LCPI0_9:
	.long	56                      # 0x38
	.long	57                      # 0x39
	.long	58                      # 0x3a
	.long	59                      # 0x3b
	.long	60                      # 0x3c
	.long	61                      # 0x3d
	.long	62                      # 0x3e
	.long	63                      # 0x3f
.LCPI0_10:
	.long	64                      # 0x40
	.long	65                      # 0x41
	.long	66                      # 0x42
	.long	67                      # 0x43
	.long	68                      # 0x44
	.long	69                      # 0x45
	.long	70                      # 0x46
	.long	71                      # 0x47
.LCPI0_11:
	.long	72                      # 0x48
	.long	73                      # 0x49
	.long	74                      # 0x4a
	.long	75                      # 0x4b
	.long	76                      # 0x4c
	.long	77                      # 0x4d
	.long	78                      # 0x4e
	.long	79                      # 0x4f
.LCPI0_12:
	.long	80                      # 0x50
	.long	81                      # 0x51
	.long	82                      # 0x52
	.long	83                      # 0x53
	.long	84                      # 0x54
	.long	85                      # 0x55
	.long	86                      # 0x56
	.long	87                      # 0x57
.LCPI0_13:
	.long	88                      # 0x58
	.long	89                      # 0x59
	.long	90                      # 0x5a
	.long	91                      # 0x5b
	.long	92                      # 0x5c
	.long	93                      # 0x5d
	.long	94                      # 0x5e
	.long	95                      # 0x5f
.LCPI0_14:
	.long	96                      # 0x60
	.long	97                      # 0x61
	.long	98                      # 0x62
	.long	99                      # 0x63
	.long	100                     # 0x64
	.long	101                     # 0x65
	.long	102                     # 0x66
	.long	103                     # 0x67
.LCPI0_15:
	.long	104                     # 0x68
	.long	105                     # 0x69
	.long	106                     # 0x6a
	.long	107                     # 0x6b
	.long	108                     # 0x6c
	.long	109                     # 0x6d
	.long	110                     # 0x6e
	.long	111                     # 0x6f
.LCPI0_16:
	.long	112                     # 0x70
	.long	113                     # 0x71
	.long	114                     # 0x72
	.long	115                     # 0x73
	.long	116                     # 0x74
	.long	117                     # 0x75
	.long	118                     # 0x76
	.long	119                     # 0x77
.LCPI0_17:
	.long	120                     # 0x78
	.long	121                     # 0x79
	.long	122                     # 0x7a
	.long	123                     # 0x7b
	.long	124                     # 0x7c
	.long	125                     # 0x7d
	.long	126                     # 0x7e
	.long	127                     # 0x7f
.LCPI0_18:
	.long	128                     # 0x80
	.long	129                     # 0x81
	.long	130                     # 0x82
	.long	131                     # 0x83
	.long	132                     # 0x84
	.long	133                     # 0x85
	.long	134                     # 0x86
	.long	135                     # 0x87
.LCPI0_19:
	.long	136                     # 0x88
	.long	137                     # 0x89
	.long	138                     # 0x8a
	.long	139                     # 0x8b
	.long	140                     # 0x8c
	.long	141                     # 0x8d
	.long	142                     # 0x8e
	.long	143                     # 0x8f
.LCPI0_20:
	.long	144                     # 0x90
	.long	145                     # 0x91
	.long	146                     # 0x92
	.long	147                     # 0x93
	.long	148                     # 0x94
	.long	149                     # 0x95
	.long	150                     # 0x96
	.long	151                     # 0x97
.LCPI0_21:
	.long	152                     # 0x98
	.long	153                     # 0x99
	.long	154                     # 0x9a
	.long	155                     # 0x9b
	.long	156                     # 0x9c
	.long	157                     # 0x9d
	.long	158                     # 0x9e
	.long	159                     # 0x9f
.LCPI0_22:
	.long	160                     # 0xa0
	.long	161                     # 0xa1
	.long	162                     # 0xa2
	.long	163                     # 0xa3
	.long	164                     # 0xa4
	.long	165                     # 0xa5
	.long	166                     # 0xa6
	.long	167                     # 0xa7
.LCPI0_23:
	.long	168                     # 0xa8
	.long	169                     # 0xa9
	.long	170                     # 0xaa
	.long	171                     # 0xab
	.long	172                     # 0xac
	.long	173                     # 0xad
	.long	174                     # 0xae
	.long	175                     # 0xaf
.LCPI0_24:
	.long	176                     # 0xb0
	.long	177                     # 0xb1
	.long	178                     # 0xb2
	.long	179                     # 0xb3
	.long	180                     # 0xb4
	.long	181                     # 0xb5
	.long	182                     # 0xb6
	.long	183                     # 0xb7
.LCPI0_25:
	.long	184                     # 0xb8
	.long	185                     # 0xb9
	.long	186                     # 0xba
	.long	187                     # 0xbb
	.long	188                     # 0xbc
	.long	189                     # 0xbd
	.long	190                     # 0xbe
	.long	191                     # 0xbf
.LCPI0_26:
	.long	192                     # 0xc0
	.long	193                     # 0xc1
	.long	194                     # 0xc2
	.long	195                     # 0xc3
	.long	196                     # 0xc4
	.long	197                     # 0xc5
	.long	198                     # 0xc6
	.long	199                     # 0xc7
.LCPI0_27:
	.long	200                     # 0xc8
	.long	201                     # 0xc9
	.long	202                     # 0xca
	.long	203                     # 0xcb
	.long	204                     # 0xcc
	.long	205                     # 0xcd
	.long	206                     # 0xce
	.long	207                     # 0xcf
.LCPI0_28:
	.long	208                     # 0xd0
	.long	209                     # 0xd1
	.long	210                     # 0xd2
	.long	211                     # 0xd3
	.long	212                     # 0xd4
	.long	213                     # 0xd5
	.long	214                     # 0xd6
	.long	215                     # 0xd7
.LCPI0_29:
	.long	216                     # 0xd8
	.long	217                     # 0xd9
	.long	218                     # 0xda
	.long	219                     # 0xdb
	.long	220                     # 0xdc
	.long	221                     # 0xdd
	.long	222                     # 0xde
	.long	223                     # 0xdf
	.section	.rodata.cst8,"aM",@progbits,8
	.align	8
.LCPI0_30:
	.quad	4696837146684686336     # double 1.0E+6
	.section	.rodata.cst16,"aM",@progbits,16
	.align	16
.LCPI0_31:
	.long	1127219200              # 0x43300000
	.long	1160773632              # 0x45300000
	.long	0                       # 0x0
	.long	0                       # 0x0
.LCPI0_32:
	.quad	4841369599423283200     # double 4503599627370496
	.quad	4985484787499139072     # double 1.9342813113834067E+25
	.text
	.globl	main
	.align	16, 0x90
	.type	main,@function
main:                                   # @main
.Lfunc_begin0:
	.loc	2 257 0                 # tests/median_test.c:257:0
	.cfi_startproc
# BB#0:
	pushq	%rbp
.Ltmp0:
	.cfi_def_cfa_offset 16
	pushq	%r15
.Ltmp1:
	.cfi_def_cfa_offset 24
	pushq	%r14
.Ltmp2:
	.cfi_def_cfa_offset 32
	pushq	%r13
.Ltmp3:
	.cfi_def_cfa_offset 40
	pushq	%r12
.Ltmp4:
	.cfi_def_cfa_offset 48
	pushq	%rbx
.Ltmp5:
	.cfi_def_cfa_offset 56
	subq	$440, %rsp              # imm = 0x1B8
.Ltmp6:
	.cfi_def_cfa_offset 496
.Ltmp7:
	.cfi_offset %rbx, -56
.Ltmp8:
	.cfi_offset %r12, -48
.Ltmp9:
	.cfi_offset %r13, -40
.Ltmp10:
	.cfi_offset %r14, -32
.Ltmp11:
	.cfi_offset %r15, -24
.Ltmp12:
	.cfi_offset %rbp, -16
	xorl	%eax, %eax
	.loc	2 258 17 prologue_end   # tests/median_test.c:258:17
.Ltmp13:
	callq	new_random@PLT
	movq	%rax, %rdi
	.loc	2 258 15 is_stmt 0      # tests/median_test.c:258:15
	movq	%rdi, generator(%rip)
.Ltmp14:
	#DEBUG_VALUE: i <- 0
	.loc	2 131 27 is_stmt 1      # tests/median_test.c:131:27
	leaq	test_median.input_pointers(%rip), %rbx
	xorl	%r14d, %r14d
	jmp	.LBB0_1
.Ltmp15:
	.align	16, 0x90
.LBB0_86:                               # %test_median.exit._crit_edge
                                        #   in Loop: Header=BB0_1 Depth=1
	#DEBUG_VALUE: test_median:b <- %RSI
	#DEBUG_VALUE: i <- %R14
	.loc	2 262 13                # tests/median_test.c:262:13
	movq	generator(%rip), %rdi
.Ltmp16:
.LBB0_1:                                # =>This Loop Header: Depth=1
                                        #     Child Loop BB0_17 Depth 2
                                        #     Child Loop BB0_20 Depth 2
                                        #       Child Loop BB0_22 Depth 3
                                        #     Child Loop BB0_26 Depth 2
                                        #       Child Loop BB0_31 Depth 3
                                        #       Child Loop BB0_33 Depth 3
                                        #         Child Loop BB0_56 Depth 4
                                        #         Child Loop BB0_44 Depth 4
                                        #         Child Loop BB0_68 Depth 4
	.loc	2 261 30 discriminator 1 # tests/median_test.c:261:30
	movl	$50, %esi
	movl	$250, %edx
	callq	random_dist_u32@PLT
	.loc	2 261 30 is_stmt 0      # tests/median_test.c:261:30
	movl	%eax, %r13d
.Ltmp17:
	#DEBUG_VALUE: array_count <- %R13
	#DEBUG_VALUE: test_median:array_count <- %R13
	#DEBUG_VALUE: current_count <- %R13
	.loc	2 265 13 is_stmt 1      # tests/median_test.c:265:13
	movq	generator(%rip), %rdi
	.loc	2 264 28 discriminator 1 # tests/median_test.c:264:28
	movl	$400000, %esi           # imm = 0x61A80
	movl	$450000, %edx           # imm = 0x6DDD0
	callq	random_dist_u32@PLT
	.loc	2 264 28 is_stmt 0      # tests/median_test.c:264:28
	movl	%eax, %r15d
.Ltmp18:
	#DEBUG_VALUE: bin_count <- %R15
	#DEBUG_VALUE: test_median:bin_count <- %R15
	#DEBUG_VALUE: random_fill:bin_count <- %R15
	.loc	2 267 42 is_stmt 1      # tests/median_test.c:267:42
	movq	generator(%rip), %rdi
	xorl	%esi, %esi
	.loc	2 267 26 is_stmt 0 discriminator 1 # tests/median_test.c:267:26
	movl	$15, %edx
	callq	random_dist_u32@PLT
	.loc	2 267 26                # tests/median_test.c:267:26
	movl	%eax, %ebp
.Ltmp19:
	#DEBUG_VALUE: offset0 <- %RBP
	#DEBUG_VALUE: test_median:offset0 <- %RBP
	.loc	2 268 42 is_stmt 1      # tests/median_test.c:268:42
	movq	generator(%rip), %rdi
	xorl	%esi, %esi
	.loc	2 267 26 discriminator 1 # tests/median_test.c:267:26
	movl	$15, %edx
	.loc	2 268 26 discriminator 1 # tests/median_test.c:268:26
	callq	random_dist_u32@PLT
	.loc	2 268 26 is_stmt 0      # tests/median_test.c:268:26
	movl	%eax, %eax
.Ltmp20:
	#DEBUG_VALUE: offset1 <- [%RSP+208]
	#DEBUG_VALUE: test_median:offset1 <- [%RSP+208]
	.loc	2 269 61 is_stmt 1      # tests/median_test.c:269:61
	movq	%rax, 208(%rsp)         # 8-byte Spill
	movq	generator(%rip), %rdi
	xorl	%esi, %esi
	.loc	2 269 45 is_stmt 0 discriminator 1 # tests/median_test.c:269:45
	movl	$12, %edx
	callq	random_dist_u32@PLT
.Ltmp21:
	.loc	2 269 45                # tests/median_test.c:269:45
	movl	%eax, %eax
	.loc	2 270 61 is_stmt 1      # tests/median_test.c:270:61
	movq	%rax, 240(%rsp)         # 8-byte Spill
	movq	generator(%rip), %rdi
	xorl	%esi, %esi
	.loc	2 269 45 discriminator 1 # tests/median_test.c:269:45
	movl	$12, %edx
	.loc	2 270 45 discriminator 1 # tests/median_test.c:270:45
	callq	random_dist_u32@PLT
	.loc	2 270 45 is_stmt 0      # tests/median_test.c:270:45
	movl	%eax, %r12d
	.loc	2 272 13 is_stmt 1      # tests/median_test.c:272:13
	movq	generator(%rip), %rdi
	xorl	%esi, %esi
	.loc	2 271 27 discriminator 1 # tests/median_test.c:271:27
	movl	$5, %edx
	callq	random_dist_u32@PLT
	.loc	2 271 27 is_stmt 0      # tests/median_test.c:271:27
	movl	%eax, %eax
.Ltmp22:
	#DEBUG_VALUE: max_iter <- [%RSP+184]
	#DEBUG_VALUE: test_median:max_iter <- [%RSP+184]
	.loc	2 124 5 is_stmt 1       # tests/median_test.c:124:5
	movq	%rax, 184(%rsp)         # 8-byte Spill
	leaq	-50(%r13), %rax
	cmpq	$201, %rax
	jae	.LBB0_88
.Ltmp23:
# BB#2:                                 #   in Loop: Header=BB0_1 Depth=1
	#DEBUG_VALUE: test_median:max_iter <- [%RSP+184]
	#DEBUG_VALUE: max_iter <- [%RSP+184]
	#DEBUG_VALUE: test_median:offset0 <- %RBP
	#DEBUG_VALUE: offset0 <- %RBP
	#DEBUG_VALUE: random_fill:bin_count <- %R15
	#DEBUG_VALUE: test_median:bin_count <- %R15
	#DEBUG_VALUE: bin_count <- %R15
	#DEBUG_VALUE: current_count <- %R13
	#DEBUG_VALUE: test_median:array_count <- %R13
	#DEBUG_VALUE: array_count <- %R13
	.loc	2 125 5                 # tests/median_test.c:125:5
	leaq	-400000(%r15), %rax
	cmpq	$50001, %rax            # imm = 0xC351
	jae	.LBB0_89
.Ltmp24:
# BB#3:                                 #   in Loop: Header=BB0_1 Depth=1
	#DEBUG_VALUE: array_count <- %R13
	#DEBUG_VALUE: test_median:array_count <- %R13
	#DEBUG_VALUE: current_count <- %R13
	#DEBUG_VALUE: bin_count <- %R15
	#DEBUG_VALUE: test_median:bin_count <- %R15
	#DEBUG_VALUE: random_fill:bin_count <- %R15
	#DEBUG_VALUE: offset0 <- %RBP
	#DEBUG_VALUE: test_median:offset0 <- %RBP
	#DEBUG_VALUE: max_iter <- [%RSP+184]
	#DEBUG_VALUE: test_median:max_iter <- [%RSP+184]
	.loc	2 126 5                 # tests/median_test.c:126:5
	cmpl	$16, %ebp
	jae	.LBB0_90
.Ltmp25:
# BB#4:                                 #   in Loop: Header=BB0_1 Depth=1
	#DEBUG_VALUE: test_median:max_iter <- [%RSP+184]
	#DEBUG_VALUE: max_iter <- [%RSP+184]
	#DEBUG_VALUE: test_median:offset0 <- %RBP
	#DEBUG_VALUE: offset0 <- %RBP
	#DEBUG_VALUE: random_fill:bin_count <- %R15
	#DEBUG_VALUE: test_median:bin_count <- %R15
	#DEBUG_VALUE: bin_count <- %R15
	#DEBUG_VALUE: current_count <- %R13
	#DEBUG_VALUE: test_median:array_count <- %R13
	#DEBUG_VALUE: array_count <- %R13
	movq	%rbp, 152(%rsp)         # 8-byte Spill
	.loc	2 127 5                 # tests/median_test.c:127:5
	movq	208(%rsp), %rax         # 8-byte Reload
	cmpl	$15, %eax
	ja	.LBB0_7
.Ltmp26:
# BB#5:                                 # %.preheader14.preheader.i
                                        #   in Loop: Header=BB0_1 Depth=1
	#DEBUG_VALUE: array_count <- %R13
	#DEBUG_VALUE: test_median:array_count <- %R13
	#DEBUG_VALUE: current_count <- %R13
	#DEBUG_VALUE: bin_count <- %R15
	#DEBUG_VALUE: test_median:bin_count <- %R15
	#DEBUG_VALUE: random_fill:bin_count <- %R15
	#DEBUG_VALUE: offset0 <- %RBP
	#DEBUG_VALUE: test_median:offset0 <- %RBP
	#DEBUG_VALUE: max_iter <- [%RSP+184]
	#DEBUG_VALUE: test_median:max_iter <- [%RSP+184]
	xorl	%esi, %esi
	.loc	2 131 27                # tests/median_test.c:131:27
.Ltmp27:
	movl	$2000, %edx             # imm = 0x7D0
	movq	%rbx, %rdi
	callq	memset@PLT
.Ltmp28:
	.loc	2 84 9                  # tests/median_test.c:84:9
	movzbl	get_shuffled_array_counts.init(%rip), %eax
	andl	$1, %eax
	cmpl	$1, %eax
	jne	.LBB0_8
.Ltmp29:
# BB#6:                                 # %get_shuffled_array_counts.exit.thread.i
                                        #   in Loop: Header=BB0_1 Depth=1
	#DEBUG_VALUE: test_median:offset0 <- %RBP
	#DEBUG_VALUE: offset0 <- %RBP
	#DEBUG_VALUE: random_fill:bin_count <- %R15
	#DEBUG_VALUE: test_median:bin_count <- %R15
	#DEBUG_VALUE: bin_count <- %R15
	#DEBUG_VALUE: current_count <- %R13
	#DEBUG_VALUE: test_median:array_count <- %R13
	#DEBUG_VALUE: array_count <- %R13
	.loc	2 90 17                 # tests/median_test.c:90:17
	movq	generator(%rip), %rdi
	.loc	2 90 5 is_stmt 0        # tests/median_test.c:90:5
	movl	$250, %edx
	leaq	get_shuffled_array_counts.numbers(%rip), %rsi
	callq	shuffle_u32@PLT
.Ltmp30:
	#DEBUG_VALUE: i <- 0
	jmp	.LBB0_9
.Ltmp31:
	.align	16, 0x90
.LBB0_8:                                # %scalar.ph84
                                        #   in Loop: Header=BB0_1 Depth=1
	#DEBUG_VALUE: test_median:offset0 <- %RBP
	#DEBUG_VALUE: offset0 <- %RBP
	#DEBUG_VALUE: random_fill:bin_count <- %R15
	#DEBUG_VALUE: test_median:bin_count <- %R15
	#DEBUG_VALUE: bin_count <- %R15
	#DEBUG_VALUE: current_count <- %R13
	#DEBUG_VALUE: test_median:array_count <- %R13
	#DEBUG_VALUE: array_count <- %R13
	.loc	2 136 32 is_stmt 1 discriminator 1 # tests/median_test.c:136:32
	movb	$1, get_shuffled_array_counts.init(%rip)
.Ltmp32:
	#DEBUG_VALUE: i <- 0
	.loc	2 87 24                 # tests/median_test.c:87:24
	vmovaps	.LCPI0_2(%rip), %ymm0   # ymm0 = [0,1,2,3,4,5,6,7]
	vmovaps	%ymm0, get_shuffled_array_counts.numbers(%rip)
	vmovaps	.LCPI0_3(%rip), %ymm0   # ymm0 = [8,9,10,11,12,13,14,15]
	vmovaps	%ymm0, get_shuffled_array_counts.numbers+32(%rip)
	vmovaps	.LCPI0_4(%rip), %ymm0   # ymm0 = [16,17,18,19,20,21,22,23]
	vmovaps	%ymm0, get_shuffled_array_counts.numbers+64(%rip)
	vmovaps	.LCPI0_5(%rip), %ymm0   # ymm0 = [24,25,26,27,28,29,30,31]
	vmovaps	%ymm0, get_shuffled_array_counts.numbers+96(%rip)
	vmovaps	.LCPI0_6(%rip), %ymm0   # ymm0 = [32,33,34,35,36,37,38,39]
	vmovaps	%ymm0, get_shuffled_array_counts.numbers+128(%rip)
	vmovaps	.LCPI0_7(%rip), %ymm0   # ymm0 = [40,41,42,43,44,45,46,47]
	vmovaps	%ymm0, get_shuffled_array_counts.numbers+160(%rip)
	vmovaps	.LCPI0_8(%rip), %ymm0   # ymm0 = [48,49,50,51,52,53,54,55]
	vmovaps	%ymm0, get_shuffled_array_counts.numbers+192(%rip)
	vmovaps	.LCPI0_9(%rip), %ymm0   # ymm0 = [56,57,58,59,60,61,62,63]
	vmovaps	%ymm0, get_shuffled_array_counts.numbers+224(%rip)
	vmovaps	.LCPI0_10(%rip), %ymm0  # ymm0 = [64,65,66,67,68,69,70,71]
	vmovaps	%ymm0, get_shuffled_array_counts.numbers+256(%rip)
	vmovaps	.LCPI0_11(%rip), %ymm0  # ymm0 = [72,73,74,75,76,77,78,79]
	vmovaps	%ymm0, get_shuffled_array_counts.numbers+288(%rip)
	vmovaps	.LCPI0_12(%rip), %ymm0  # ymm0 = [80,81,82,83,84,85,86,87]
	vmovaps	%ymm0, get_shuffled_array_counts.numbers+320(%rip)
	vmovaps	.LCPI0_13(%rip), %ymm0  # ymm0 = [88,89,90,91,92,93,94,95]
	vmovaps	%ymm0, get_shuffled_array_counts.numbers+352(%rip)
	vmovaps	.LCPI0_14(%rip), %ymm0  # ymm0 = [96,97,98,99,100,101,102,103]
	vmovaps	%ymm0, get_shuffled_array_counts.numbers+384(%rip)
	vmovaps	.LCPI0_15(%rip), %ymm0  # ymm0 = [104,105,106,107,108,109,110,111]
	vmovaps	%ymm0, get_shuffled_array_counts.numbers+416(%rip)
	vmovaps	.LCPI0_16(%rip), %ymm0  # ymm0 = [112,113,114,115,116,117,118,119]
	vmovaps	%ymm0, get_shuffled_array_counts.numbers+448(%rip)
	vmovaps	.LCPI0_17(%rip), %ymm0  # ymm0 = [120,121,122,123,124,125,126,127]
	vmovaps	%ymm0, get_shuffled_array_counts.numbers+480(%rip)
	vmovaps	.LCPI0_18(%rip), %ymm0  # ymm0 = [128,129,130,131,132,133,134,135]
	vmovaps	%ymm0, get_shuffled_array_counts.numbers+512(%rip)
	vmovaps	.LCPI0_19(%rip), %ymm0  # ymm0 = [136,137,138,139,140,141,142,143]
	vmovaps	%ymm0, get_shuffled_array_counts.numbers+544(%rip)
	vmovaps	.LCPI0_20(%rip), %ymm0  # ymm0 = [144,145,146,147,148,149,150,151]
	vmovaps	%ymm0, get_shuffled_array_counts.numbers+576(%rip)
	vmovaps	.LCPI0_21(%rip), %ymm0  # ymm0 = [152,153,154,155,156,157,158,159]
	vmovaps	%ymm0, get_shuffled_array_counts.numbers+608(%rip)
	vmovaps	.LCPI0_22(%rip), %ymm0  # ymm0 = [160,161,162,163,164,165,166,167]
	vmovaps	%ymm0, get_shuffled_array_counts.numbers+640(%rip)
	vmovaps	.LCPI0_23(%rip), %ymm0  # ymm0 = [168,169,170,171,172,173,174,175]
	vmovaps	%ymm0, get_shuffled_array_counts.numbers+672(%rip)
	vmovaps	.LCPI0_24(%rip), %ymm0  # ymm0 = [176,177,178,179,180,181,182,183]
	vmovaps	%ymm0, get_shuffled_array_counts.numbers+704(%rip)
	vmovaps	.LCPI0_25(%rip), %ymm0  # ymm0 = [184,185,186,187,188,189,190,191]
	vmovaps	%ymm0, get_shuffled_array_counts.numbers+736(%rip)
	vmovaps	.LCPI0_26(%rip), %ymm0  # ymm0 = [192,193,194,195,196,197,198,199]
	vmovaps	%ymm0, get_shuffled_array_counts.numbers+768(%rip)
	vmovaps	.LCPI0_27(%rip), %ymm0  # ymm0 = [200,201,202,203,204,205,206,207]
	vmovaps	%ymm0, get_shuffled_array_counts.numbers+800(%rip)
	vmovaps	.LCPI0_28(%rip), %ymm0  # ymm0 = [208,209,210,211,212,213,214,215]
	vmovaps	%ymm0, get_shuffled_array_counts.numbers+832(%rip)
	vmovapd	.LCPI0_29(%rip), %ymm0  # ymm0 = [216,217,218,219,220,221,222,223]
	vmovapd	%ymm0, get_shuffled_array_counts.numbers+864(%rip)
	movabsq	$966367641824, %rax     # imm = 0xE1000000E0
	movq	%rax, get_shuffled_array_counts.numbers+896(%rip)
	movabsq	$974957576418, %rax     # imm = 0xE3000000E2
	movq	%rax, get_shuffled_array_counts.numbers+904(%rip)
	movabsq	$983547511012, %rax     # imm = 0xE5000000E4
	movq	%rax, get_shuffled_array_counts.numbers+912(%rip)
	movabsq	$992137445606, %rax     # imm = 0xE7000000E6
	movq	%rax, get_shuffled_array_counts.numbers+920(%rip)
	movabsq	$1000727380200, %rax    # imm = 0xE9000000E8
	movq	%rax, get_shuffled_array_counts.numbers+928(%rip)
	movabsq	$1009317314794, %rax    # imm = 0xEB000000EA
	movq	%rax, get_shuffled_array_counts.numbers+936(%rip)
	movabsq	$1017907249388, %rax    # imm = 0xED000000EC
	movq	%rax, get_shuffled_array_counts.numbers+944(%rip)
	movabsq	$1026497183982, %rax    # imm = 0xEF000000EE
	movq	%rax, get_shuffled_array_counts.numbers+952(%rip)
	movabsq	$1035087118576, %rax    # imm = 0xF1000000F0
	movq	%rax, get_shuffled_array_counts.numbers+960(%rip)
	movabsq	$1043677053170, %rax    # imm = 0xF3000000F2
	movq	%rax, get_shuffled_array_counts.numbers+968(%rip)
	movabsq	$1052266987764, %rax    # imm = 0xF5000000F4
	movq	%rax, get_shuffled_array_counts.numbers+976(%rip)
	movabsq	$1060856922358, %rax    # imm = 0xF7000000F6
	movq	%rax, get_shuffled_array_counts.numbers+984(%rip)
	movabsq	$1069446856952, %rax    # imm = 0xF9000000F8
	movq	%rax, get_shuffled_array_counts.numbers+992(%rip)
.Ltmp33:
	.loc	2 90 17                 # tests/median_test.c:90:17
	movq	generator(%rip), %rdi
	.loc	2 90 5 is_stmt 0        # tests/median_test.c:90:5
	movl	$250, %edx
	leaq	get_shuffled_array_counts.numbers(%rip), %rsi
	vzeroupper
	callq	shuffle_u32@PLT
	#DEBUG_VALUE: i <- 0
	movb	$1, %al
.Ltmp34:
	.loc	2 137 26 is_stmt 1 discriminator 1 # tests/median_test.c:137:26
	movl	%eax, 180(%rsp)         # 4-byte Spill
	testl	%r13d, %r13d
	je	.LBB0_13
.Ltmp35:
.LBB0_9:                                # %.lr.ph49.i.preheader
                                        #   in Loop: Header=BB0_1 Depth=1
	#DEBUG_VALUE: array_count <- %R13
	#DEBUG_VALUE: test_median:array_count <- %R13
	#DEBUG_VALUE: current_count <- %R13
	#DEBUG_VALUE: bin_count <- %R15
	#DEBUG_VALUE: test_median:bin_count <- %R15
	#DEBUG_VALUE: random_fill:bin_count <- %R15
	#DEBUG_VALUE: offset0 <- %RBP
	#DEBUG_VALUE: test_median:offset0 <- %RBP
	movl	$0, %edx
	.loc	2 138 43                # tests/median_test.c:138:43
.Ltmp36:
	testb	$1, %r13b
	.loc	2 138 40 is_stmt 0      # tests/median_test.c:138:40
	leaq	input_data(%rip), %rdi
	movq	152(%rsp), %rbp         # 8-byte Reload
.Ltmp37:
	je	.LBB0_11
.Ltmp38:
# BB#10:                                # %.lr.ph49.i.prol
                                        #   in Loop: Header=BB0_1 Depth=1
	#DEBUG_VALUE: random_fill:bin_count <- %R15
	#DEBUG_VALUE: test_median:bin_count <- %R15
	#DEBUG_VALUE: bin_count <- %R15
	#DEBUG_VALUE: current_count <- %R13
	#DEBUG_VALUE: test_median:array_count <- %R13
	#DEBUG_VALUE: array_count <- %R13
	.loc	2 138 43                # tests/median_test.c:138:43
	movl	get_shuffled_array_counts.numbers(%rip), %eax
	.loc	2 138 55                # tests/median_test.c:138:55
	imulq	%r15, %rax
	.loc	2 138 40                # tests/median_test.c:138:40
	leaq	(%rdi,%rax,2), %rax
	.loc	2 138 68                # tests/median_test.c:138:68
	leaq	(%rax,%rbp,2), %rax
	.loc	2 138 27                # tests/median_test.c:138:27
	movq	%rax, test_median.input_pointers(%rip)
.Ltmp39:
	#DEBUG_VALUE: i <- 1
	movl	$1, %edx
.Ltmp40:
.LBB0_11:                               # %.lr.ph49.i.preheader.split
                                        #   in Loop: Header=BB0_1 Depth=1
	#DEBUG_VALUE: random_fill:bin_count <- %R15
	#DEBUG_VALUE: test_median:bin_count <- %R15
	#DEBUG_VALUE: bin_count <- %R15
	#DEBUG_VALUE: current_count <- %R13
	#DEBUG_VALUE: test_median:array_count <- %R13
	#DEBUG_VALUE: array_count <- %R13
	.loc	2 138 43                # tests/median_test.c:138:43
	cmpl	$1, %r13d
	je	.LBB0_12
.Ltmp41:
# BB#16:                                # %.lr.ph49.i.preheader.split.split
                                        #   in Loop: Header=BB0_1 Depth=1
	#DEBUG_VALUE: array_count <- %R13
	#DEBUG_VALUE: test_median:array_count <- %R13
	#DEBUG_VALUE: current_count <- %R13
	#DEBUG_VALUE: bin_count <- %R15
	#DEBUG_VALUE: test_median:bin_count <- %R15
	#DEBUG_VALUE: random_fill:bin_count <- %R15
	movq	%r13, %rax
	subq	%rdx, %rax
	leaq	8(%rbx,%rdx,8), %rcx
.Ltmp42:
	.loc	2 90 5 is_stmt 1        # tests/median_test.c:90:5
	leaq	get_shuffled_array_counts.numbers(%rip), %rsi
.Ltmp43:
	.loc	2 138 43                # tests/median_test.c:138:43
	leaq	4(%rsi,%rdx,4), %rdx
.Ltmp44:
	.align	16, 0x90
.LBB0_17:                               # %.lr.ph49.i
                                        #   Parent Loop BB0_1 Depth=1
                                        # =>  This Inner Loop Header: Depth=2
	movl	-4(%rdx), %esi
	.loc	2 138 55 is_stmt 0      # tests/median_test.c:138:55
	imulq	%r15, %rsi
	.loc	2 138 40                # tests/median_test.c:138:40
	leaq	(%rdi,%rsi,2), %rsi
	.loc	2 138 68                # tests/median_test.c:138:68
	leaq	(%rsi,%rbp,2), %rsi
	.loc	2 138 27                # tests/median_test.c:138:27
	movq	%rsi, -8(%rcx)
	.loc	2 138 43                # tests/median_test.c:138:43
	movl	(%rdx), %esi
	.loc	2 138 55                # tests/median_test.c:138:55
	imulq	%r15, %rsi
	.loc	2 138 40                # tests/median_test.c:138:40
	leaq	(%rdi,%rsi,2), %rsi
	.loc	2 138 68                # tests/median_test.c:138:68
	leaq	(%rsi,%rbp,2), %rsi
	.loc	2 138 27                # tests/median_test.c:138:27
	movq	%rsi, (%rcx)
.Ltmp45:
	.loc	2 137 5 is_stmt 1 discriminator 1 # tests/median_test.c:137:5
	addq	$16, %rcx
	addq	$8, %rdx
	addq	$-2, %rax
	jne	.LBB0_17
.Ltmp46:
.LBB0_12:                               #   in Loop: Header=BB0_1 Depth=1
	movl	$0, 180(%rsp)           # 4-byte Folded Spill
.LBB0_13:                               # %._crit_edge50.i
                                        #   in Loop: Header=BB0_1 Depth=1
	.loc	2 144 56                # tests/median_test.c:144:56
.Ltmp47:
	leaq	(%r15,%r15), %rsi
.Ltmp48:
	#DEBUG_VALUE: test_median:input_page <- undef
	xorl	%edx, %edx
	leaq	384(%rsp), %rdi
	.loc	2 144 9 is_stmt 0       # tests/median_test.c:144:9
	callq	init_canary_page@PLT
	.loc	2 144 72                # tests/median_test.c:144:72
	testl	%eax, %eax
	jne	.LBB0_14
.Ltmp49:
# BB#18:                                #   in Loop: Header=BB0_1 Depth=1
	movq	%r14, 136(%rsp)         # 8-byte Spill
	.loc	2 269 45 is_stmt 1      # tests/median_test.c:269:45
	vcvtsi2ssq	240(%rsp), %xmm0, %xmm0 # 8-byte Folded Reload
	.loc	2 270 45                # tests/median_test.c:270:45
	vcvtsi2ssq	%r12, %xmm0, %xmm1
	.loc	2 269 43                # tests/median_test.c:269:43
	vmovss	.LCPI0_0(%rip), %xmm2   # xmm2 = mem[0],zero,zero,zero
	vmulss	%xmm2, %xmm0, %xmm0
	.loc	2 270 43                # tests/median_test.c:270:43
	vmulss	%xmm2, %xmm1, %xmm1
	.loc	2 269 35                # tests/median_test.c:269:35
	vmovss	.LCPI0_1(%rip), %xmm2   # xmm2 = mem[0],zero,zero,zero
	vaddss	%xmm2, %xmm0, %xmm0
	.loc	2 270 35                # tests/median_test.c:270:35
	vaddss	%xmm2, %xmm1, %xmm1
	.loc	2 269 30                # tests/median_test.c:269:30
	vcvtss2sd	%xmm0, %xmm0, %xmm0
.Ltmp50:
	#DEBUG_VALUE: sigma_lower <- [%RSP+200]
	#DEBUG_VALUE: test_median:sigma_lower <- [%RSP+200]
	.loc	2 270 30                # tests/median_test.c:270:30
	vmovsd	%xmm0, 200(%rsp)        # 8-byte Spill
	vcvtss2sd	%xmm1, %xmm1, %xmm0
.Ltmp51:
	#DEBUG_VALUE: sigma_upper <- [%RSP+192]
	#DEBUG_VALUE: test_median:sigma_upper <- [%RSP+192]
	.loc	2 149 22                # tests/median_test.c:149:22
	vmovsd	%xmm0, 192(%rsp)        # 8-byte Spill
	movq	384(%rsp), %rbp
	.loc	2 148 36                # tests/median_test.c:148:36
	movq	generator(%rip), %rdi
	.loc	2 148 62 is_stmt 0      # tests/median_test.c:148:62
	leaq	-1(%r13), %rdx
	.loc	2 148 20                # tests/median_test.c:148:20
	movq	%rdx, 160(%rsp)         # 8-byte Spill
	xorl	%esi, %esi
	callq	random_dist_u32@PLT
.Ltmp52:
	.loc	2 148 5                 # tests/median_test.c:148:5
	movl	%eax, %eax
	.loc	2 149 9 is_stmt 1       # tests/median_test.c:149:9
	movq	%rbp, (%rbx,%rax,8)
	.loc	2 153 37                # tests/median_test.c:153:37
	leaq	(,%r15,4), %rsi
	.loc	2 153 58 is_stmt 0      # tests/median_test.c:153:58
	movq	208(%rsp), %rax         # 8-byte Reload
	leaq	(,%rax,4), %rdx
.Ltmp53:
	#DEBUG_VALUE: test_median:output_page <- undef
	leaq	344(%rsp), %rdi
	.loc	2 152 5 is_stmt 1       # tests/median_test.c:152:5
	callq	init_canary_page@PLT
	.loc	2 155 41                # tests/median_test.c:155:41
	movq	344(%rsp), %rax
.Ltmp54:
	#DEBUG_VALUE: test_median:output_pointer <- [%RSP+168]
	.loc	2 158 43                # tests/median_test.c:158:43
	movq	%rax, 168(%rsp)         # 8-byte Spill
	movq	generator(%rip), %rdi
	xorl	%esi, %esi
	.loc	2 158 27 is_stmt 0 discriminator 1 # tests/median_test.c:158:27
.Ltmp55:
	movl	$3071, %edx             # imm = 0xBFF
	callq	random_dist_u32@PLT
.Ltmp56:
	#DEBUG_VALUE: i <- 0
	#DEBUG_VALUE: test_median:base <- %EAX
	#DEBUG_VALUE: random_fill:base <- %EAX
	.loc	2 159 5 is_stmt 1 discriminator 1 # tests/median_test.c:159:5
	movq	%rax, 240(%rsp)         # 8-byte Spill
	movl	180(%rsp), %eax         # 4-byte Reload
.Ltmp57:
	testb	%al, %al
	jne	.LBB0_24
# BB#19:                                # %.lr.ph46.i
                                        #   in Loop: Header=BB0_1 Depth=1
	xorl	%eax, %eax
	movq	%rax, 224(%rsp)         # 8-byte Spill
.Ltmp58:
	.align	16, 0x90
.LBB0_20:                               #   Parent Loop BB0_1 Depth=1
                                        # =>  This Loop Header: Depth=2
                                        #       Child Loop BB0_22 Depth 3
	testl	%r15d, %r15d
.Ltmp59:
	#DEBUG_VALUE: i <- 0
	je	.LBB0_23
# BB#21:                                #   in Loop: Header=BB0_20 Depth=2
	.loc	2 160 21                # tests/median_test.c:160:21
.Ltmp60:
	movq	224(%rsp), %rax         # 8-byte Reload
	movq	(%rbx,%rax,8), %r12
.Ltmp61:
	#DEBUG_VALUE: random_fill:out <- %R12
	.loc	2 160 9 is_stmt 0       # tests/median_test.c:160:9
	movq	%r15, %r14
.Ltmp62:
	.align	16, 0x90
.LBB0_22:                               # %.lr.ph.i.i
                                        #   Parent Loop BB0_1 Depth=1
                                        #     Parent Loop BB0_20 Depth=2
                                        # =>    This Inner Loop Header: Depth=3
	.loc	2 96 33 is_stmt 1       # tests/median_test.c:96:33
	movq	generator(%rip), %rdi
	.loc	2 96 22 is_stmt 0 discriminator 1 # tests/median_test.c:96:22
.Ltmp63:
	callq	random_u32@PLT
	movl	%eax, %ebp
.Ltmp64:
	#DEBUG_VALUE: r <- %EBP
	.loc	2 97 33 is_stmt 1       # tests/median_test.c:97:33
	movq	generator(%rip), %rdi
	.loc	2 97 22 is_stmt 0 discriminator 1 # tests/median_test.c:97:22
.Ltmp65:
	callq	random_u32@PLT
	movq	240(%rsp), %r9          # 8-byte Reload
.Ltmp66:
	#DEBUG_VALUE: s <- %EAX
	.loc	2 99 22 is_stmt 1       # tests/median_test.c:99:22
	movl	%ebp, %ecx
	andl	$127, %ecx
	.loc	2 100 11                # tests/median_test.c:100:11
	movl	%ebp, %esi
	shrl	$10, %esi
.Ltmp67:
	#DEBUG_VALUE: r <- %ESI
	.loc	2 101 16                # tests/median_test.c:101:16
	leal	(,%rsi,8), %edx
	subl	%esi, %edx
	.loc	2 101 30 is_stmt 0      # tests/median_test.c:101:30
	andl	$1023, %edx             # imm = 0x3FF
	.loc	2 102 11 is_stmt 1      # tests/median_test.c:102:11
	shrl	$20, %ebp
.Ltmp68:
	#DEBUG_VALUE: r <- %EBP
	.loc	2 103 16                # tests/median_test.c:103:16
	leal	(%rbp,%rbp,4), %r8d
	.loc	2 105 16                # tests/median_test.c:105:16
	leal	(,%rax,8), %edi
	subl	%eax, %edi
	.loc	2 105 30 is_stmt 0      # tests/median_test.c:105:30
	andl	$1023, %edi             # imm = 0x3FF
	.loc	2 106 11 is_stmt 1      # tests/median_test.c:106:11
	movl	%eax, %ebp
.Ltmp69:
	shrl	$10, %ebp
.Ltmp70:
	#DEBUG_VALUE: s <- %EBP
	.loc	2 107 16                # tests/median_test.c:107:16
	leal	(,%rbp,8), %esi
	subl	%ebp, %esi
	.loc	2 107 30 is_stmt 0      # tests/median_test.c:107:30
	andl	$1023, %esi             # imm = 0x3FF
	.loc	2 108 11 is_stmt 1      # tests/median_test.c:108:11
	shrl	$20, %eax
.Ltmp71:
	#DEBUG_VALUE: s <- %EAX
	.loc	2 109 16                # tests/median_test.c:109:16
	leal	(%rax,%rax,2), %eax
.Ltmp72:
	.loc	2 101 11                # tests/median_test.c:101:11
	leal	(%r9,%rcx,8), %ecx
	.loc	2 103 11                # tests/median_test.c:103:11
	addl	%r8d, %ecx
	.loc	2 105 11                # tests/median_test.c:105:11
	addl	%edx, %ecx
	.loc	2 107 11                # tests/median_test.c:107:11
	addl	%eax, %ecx
	.loc	2 109 11                # tests/median_test.c:109:11
	addl	%edi, %ecx
	.loc	2 111 20                # tests/median_test.c:111:20
	addl	%esi, %ecx
	.loc	2 111 16 is_stmt 0      # tests/median_test.c:111:16
	movw	%cx, (%r12)
.Ltmp73:
	.loc	2 95 5 is_stmt 1 discriminator 1 # tests/median_test.c:95:5
	addq	$2, %r12
	decq	%r14
	jne	.LBB0_22
.Ltmp74:
.LBB0_23:                               # %random_fill.exit.i
                                        #   in Loop: Header=BB0_20 Depth=2
	movq	224(%rsp), %rax         # 8-byte Reload
	.loc	2 159 41 discriminator 3 # tests/median_test.c:159:41
.Ltmp75:
	incq	%rax
.Ltmp76:
	#DEBUG_VALUE: i <- %RAX
	.loc	2 159 5 is_stmt 0 discriminator 1 # tests/median_test.c:159:5
	movq	%rax, 224(%rsp)         # 8-byte Spill
	cmpq	%r13, %rax
.Ltmp77:
	#DEBUG_VALUE: i <- [%RSP+224]
	jne	.LBB0_20
.Ltmp78:
.LBB0_24:                               # %._crit_edge47.i
                                        #   in Loop: Header=BB0_1 Depth=1
	.loc	2 164 45 is_stmt 1      # tests/median_test.c:164:45
	movq	generator(%rip), %rdi
	.loc	2 164 29 is_stmt 0 discriminator 1 # tests/median_test.c:164:29
.Ltmp79:
	movl	$1, %esi
.Ltmp80:
	.loc	2 269 45 is_stmt 1 discriminator 1 # tests/median_test.c:269:45
	movl	$12, %edx
	.loc	2 164 29 discriminator 1 # tests/median_test.c:164:29
.Ltmp81:
	callq	random_dist_u32@PLT
	movl	%eax, %r14d
.Ltmp82:
	#DEBUG_VALUE: test_median:thread_count <- %R14D
	.loc	2 166 58                # tests/median_test.c:166:58
	movq	generator(%rip), %rdi
	.loc	2 166 49 is_stmt 0      # tests/median_test.c:166:49
	callq	get_seed@PLT
	movq	%rax, %rcx
	xorl	%eax, %eax
	.loc	2 166 5 discriminator 1 # tests/median_test.c:166:5
.Ltmp83:
	leaq	.L.str.6(%rip), %rdi
	movq	%rcx, %rsi
	callq	printf@PLT
	xorl	%eax, %eax
.Ltmp84:
	.loc	2 167 5 is_stmt 1       # tests/median_test.c:167:5
	leaq	.L.str.7(%rip), %rdi
	movq	%r13, %rsi
	movq	%r15, %rdx
	callq	printf@PLT
	xorl	%eax, %eax
	.loc	2 168 5                 # tests/median_test.c:168:5
	leaq	.L.str.8(%rip), %rdi
	movq	152(%rsp), %rsi         # 8-byte Reload
	movq	208(%rsp), %rdx         # 8-byte Reload
	callq	printf@PLT
	.loc	2 169 5                 # tests/median_test.c:169:5
	movb	$2, %al
	leaq	.L.str.9(%rip), %rdi
	vmovsd	200(%rsp), %xmm0        # 8-byte Reload
                                        # xmm0 = mem[0],zero
	vmovsd	192(%rsp), %xmm1        # 8-byte Reload
                                        # xmm1 = mem[0],zero
	movq	184(%rsp), %rbp         # 8-byte Reload
	movq	%rbp, %rsi
	callq	printf@PLT
	xorl	%eax, %eax
	.loc	2 170 5                 # tests/median_test.c:170:5
	leaq	.L.str.10(%rip), %rdi
	movl	%r14d, %esi
	callq	printf@PLT
	.loc	2 175 5                 # tests/median_test.c:175:5
	leaq	timer_begin(%rip), %rdi
	callq	ftime@PLT
.Ltmp85:
	#DEBUG_VALUE: u16_input:result [bit_piece offset=320 size=32] <- 0
	.loc	2 60 12                 # tests/median_test.c:60:12
	leaq	u16_input_loop(%rip), %rax
	movq	%rax, 296(%rsp)
	leaq	no_op(%rip), %rax
	movq	%rax, 304(%rsp)
	movq	%rbx, 312(%rsp)
	movq	%r13, 320(%rsp)
	movq	%r15, 328(%rsp)
	movl	$0, 336(%rsp)
	leaq	264(%rsp), %rdi
.Ltmp86:
	.loc	2 179 9                 # tests/median_test.c:179:9
	vmovsd	200(%rsp), %xmm0        # 8-byte Reload
                                        # xmm0 = mem[0],zero
	vmovsd	192(%rsp), %xmm1        # 8-byte Reload
                                        # xmm1 = mem[0],zero
	movq	%rbp, %rsi
	callq	mediocre_clipped_median_functor2@PLT
	.loc	2 176 18                # tests/median_test.c:176:18
	vmovups	296(%rsp), %ymm0
	vmovups	312(%rsp), %ymm1
	vmovups	%ymm1, 16(%rsp)
	vmovups	%ymm0, (%rsp)
	vmovups	264(%rsp), %ymm0
	vmovups	%ymm0, 48(%rsp)
	movq	168(%rsp), %rdi         # 8-byte Reload
	movl	%r14d, %esi
	vzeroupper
	callq	mediocre_combine_destroy@PLT
	movl	%eax, 240(%rsp)         # 4-byte Spill
.Ltmp87:
	#DEBUG_VALUE: test_median:status <- [%RSP+240]
	xorl	%eax, %eax
	.loc	2 183 5                 # tests/median_test.c:183:5
	leaq	.L.str.11(%rip), %rdi
	callq	printf@PLT
.Ltmp88:
	.loc	2 184 50                # tests/median_test.c:184:50
	movq	%r15, %rbp
	imulq	%r13, %rbp
.Ltmp89:
	#DEBUG_VALUE: print_timer_elapsed:item_count <- %RBP
	.loc	2 184 5 is_stmt 0       # tests/median_test.c:184:5
	movq	timer_begin(%rip), %r12
.Ltmp90:
	#DEBUG_VALUE: print_timer_elapsed:before [bit_piece offset=0 size=64] <- %R12
	#DEBUG_VALUE: ms_elapsed:before [bit_piece offset=0 size=64] <- %R12
	movzwl	timer_begin+8(%rip), %r14d
.Ltmp91:
	#DEBUG_VALUE: ms_elapsed:now <- undef
	leaq	424(%rsp), %rdi
	.file	7 "src/inline" "testing.h"
	.loc	7 71 5 is_stmt 1        # src/inline/testing.h:71:5
.Ltmp92:
	callq	ftime@PLT
	.loc	7 73 31                 # src/inline/testing.h:73:31
	movq	424(%rsp), %rax
	.loc	7 73 38 is_stmt 0       # src/inline/testing.h:73:38
	movzwl	432(%rsp), %esi
.Ltmp93:
	.loc	7 78 15 is_stmt 1 discriminator 1 # src/inline/testing.h:78:15
	subq	%r12, %rax
	imulq	$1000, %rax, %rax       # imm = 0x3E8
	.loc	7 73 36                 # src/inline/testing.h:73:36
.Ltmp94:
	subq	%r14, %rsi
	.loc	7 74 19                 # src/inline/testing.h:74:19
	addq	%rax, %rsi
.Ltmp95:
	#DEBUG_VALUE: print_timer_elapsed:ms <- %RSI
	.loc	7 79 26                 # src/inline/testing.h:79:26
	vcvtsi2sdq	%rsi, %xmm0, %xmm0
	.loc	7 79 29 is_stmt 0       # src/inline/testing.h:79:29
	vmulsd	.LCPI0_30(%rip), %xmm0, %xmm0
	.loc	7 79 37                 # src/inline/testing.h:79:37
	vmovq	%rbp, %xmm1
	vpunpckldq	.LCPI0_31(%rip), %xmm1, %xmm1 # xmm1 = xmm1[0],mem[0],xmm1[1],mem[1]
	vsubpd	.LCPI0_32(%rip), %xmm1, %xmm1
	vhaddpd	%xmm1, %xmm1, %xmm1
	.loc	7 79 35                 # src/inline/testing.h:79:35
	vdivsd	%xmm1, %xmm0, %xmm0
.Ltmp96:
	#DEBUG_VALUE: print_timer_elapsed:ns_per_item <- %XMM0
	movb	$1, %al
	.loc	7 80 5 is_stmt 1        # src/inline/testing.h:80:5
	leaq	.L.str.18(%rip), %rdi
	callq	printf@PLT
.Ltmp97:
	.loc	2 185 5                 # tests/median_test.c:185:5
	leaq	.Lstr(%rip), %rdi
	callq	puts@PLT
	.loc	2 187 9                 # tests/median_test.c:187:9
	cmpl	$0, 240(%rsp)           # 4-byte Folded Reload
.Ltmp98:
	#DEBUG_VALUE: u16_input:result [bit_piece offset=0 size=64] <- undef
	#DEBUG_VALUE: u16_input:result [bit_piece offset=64 size=64] <- undef
	#DEBUG_VALUE: u16_input:result [bit_piece offset=128 size=64] <- %RBX
	jne	.LBB0_91
.Ltmp99:
# BB#25:                                # %.preheader13.i
                                        #   in Loop: Header=BB0_1 Depth=1
	#DEBUG_VALUE: u16_input:result [bit_piece offset=128 size=64] <- %RBX
	#DEBUG_VALUE: print_timer_elapsed:ns_per_item <- %XMM0
	#DEBUG_VALUE: print_timer_elapsed:ms <- %RSI
	#DEBUG_VALUE: ms_elapsed:before [bit_piece offset=0 size=64] <- %R12
	#DEBUG_VALUE: print_timer_elapsed:before [bit_piece offset=0 size=64] <- %R12
	#DEBUG_VALUE: print_timer_elapsed:item_count <- %RBP
	.loc	2 205 32                # tests/median_test.c:205:32
	movq	%r13, %rax
	shrq	%rax
	movq	%rax, 152(%rsp)         # 8-byte Spill
	.loc	2 205 62 is_stmt 0      # tests/median_test.c:205:62
	shrq	160(%rsp)               # 8-byte Folded Spill
	.loc	2 199 32 is_stmt 1      # tests/median_test.c:199:32
.Ltmp100:
	movl	%r13d, %eax
	andl	$1, %eax
	movl	%eax, 148(%rsp)         # 4-byte Spill
.Ltmp101:
	.loc	2 201 9                 # tests/median_test.c:201:9
	leaq	test_median.sorted(%rip), %r12
.Ltmp102:
	movq	184(%rsp), %r14         # 8-byte Reload
.Ltmp103:
	.align	16, 0x90
.LBB0_26:                               #   Parent Loop BB0_1 Depth=1
                                        # =>  This Loop Header: Depth=2
                                        #       Child Loop BB0_31 Depth 3
                                        #       Child Loop BB0_33 Depth 3
                                        #         Child Loop BB0_56 Depth 4
                                        #         Child Loop BB0_44 Depth 4
                                        #         Child Loop BB0_68 Depth 4
	#DEBUG_VALUE: a <- 0
	.loc	2 198 9 discriminator 1 # tests/median_test.c:198:9
	movl	180(%rsp), %eax         # 4-byte Reload
	testb	%al, %al
	jne	.LBB0_32
.Ltmp104:
# BB#27:                                # %.lr.ph22.i.preheader
                                        #   in Loop: Header=BB0_26 Depth=2
	movl	$0, %edx
	cmpl	$0, 148(%rsp)           # 4-byte Folded Reload
	je	.LBB0_29
# BB#28:                                # %.lr.ph22.i.prol
                                        #   in Loop: Header=BB0_26 Depth=2
	.loc	2 199 32                # tests/median_test.c:199:32
.Ltmp105:
	movq	test_median.input_pointers(%rip), %rax
	.loc	2 199 25 is_stmt 0      # tests/median_test.c:199:25
	movzwl	-2(%rax,%r15,2), %eax
	vcvtsi2ssl	%eax, %xmm0, %xmm0
	.loc	2 199 23                # tests/median_test.c:199:23
	vmovss	%xmm0, test_median.sorted(%rip)
.Ltmp106:
	#DEBUG_VALUE: a <- 1
	movl	$1, %edx
.LBB0_29:                               # %.lr.ph22.i.preheader.split
                                        #   in Loop: Header=BB0_26 Depth=2
	cmpl	$1, %r13d
	je	.LBB0_32
# BB#30:                                # %.lr.ph22.i.preheader.split.split
                                        #   in Loop: Header=BB0_26 Depth=2
	.loc	2 199 32                # tests/median_test.c:199:32
	movq	%r13, %rax
	subq	%rdx, %rax
	leaq	4(%r12,%rdx,4), %rcx
	leaq	8(%rbx,%rdx,8), %rdx
	.align	16, 0x90
.LBB0_31:                               # %.lr.ph22.i
                                        #   Parent Loop BB0_1 Depth=1
                                        #     Parent Loop BB0_26 Depth=2
                                        # =>    This Inner Loop Header: Depth=3
	movq	-8(%rdx), %rsi
	.loc	2 199 25                # tests/median_test.c:199:25
	movzwl	-2(%rsi,%r15,2), %esi
	vxorps	%xmm0, %xmm0, %xmm0
	vcvtsi2ssl	%esi, %xmm0, %xmm0
	.loc	2 199 23                # tests/median_test.c:199:23
	vmovss	%xmm0, -4(%rcx)
	.loc	2 199 32                # tests/median_test.c:199:32
	movq	(%rdx), %rsi
	.loc	2 199 25                # tests/median_test.c:199:25
	movzwl	-2(%rsi,%r15,2), %esi
	vxorps	%xmm0, %xmm0, %xmm0
	vcvtsi2ssl	%esi, %xmm0, %xmm0
	.loc	2 199 23                # tests/median_test.c:199:23
	vmovss	%xmm0, (%rcx)
.Ltmp107:
	.loc	2 198 9 is_stmt 1 discriminator 1 # tests/median_test.c:198:9
	addq	$8, %rcx
	addq	$16, %rdx
	addq	$-2, %rax
	jne	.LBB0_31
.Ltmp108:
.LBB0_32:                               # %._crit_edge23.i
                                        #   in Loop: Header=BB0_26 Depth=2
	.loc	2 201 9                 # tests/median_test.c:201:9
	movq	%r12, %rdi
	movq	%r13, %rsi
	vzeroupper
	callq	sort_floats@PLT
	.loc	2 205 13                # tests/median_test.c:205:13
	movq	152(%rsp), %rax         # 8-byte Reload
	vmovss	(%r12,%rax,4), %xmm0    # xmm0 = mem[0],zero,zero,zero
	.loc	2 205 37 is_stmt 0      # tests/median_test.c:205:37
	movq	160(%rsp), %rax         # 8-byte Reload
	vaddss	(%r12,%rax,4), %xmm0, %xmm0
.Ltmp109:
	#DEBUG_VALUE: iter <- 0
	#DEBUG_VALUE: upper_bound <- inf
	#DEBUG_VALUE: lower_bound <- -inf
	vmovss	.LCPI0_33(%rip), %xmm10 # xmm10 = mem[0],zero,zero,zero
	.loc	2 204 29 is_stmt 1      # tests/median_test.c:204:29
	vmulss	%xmm10, %xmm0, %xmm15
.Ltmp110:
	.loc	2 274 9                 # tests/median_test.c:274:9
	movq	%r13, %rbp
	movl	$0, %esi
	vmovss	.LCPI0_35(%rip), %xmm0  # xmm0 = mem[0],zero,zero,zero
	vmovaps	%xmm0, %xmm13
	vmovss	.LCPI0_34(%rip), %xmm0  # xmm0 = mem[0],zero,zero,zero
	vmovaps	%xmm0, %xmm14
	testl	%r14d, %r14d
	vmovdqa	.LCPI0_31(%rip), %xmm8  # xmm8 = [1127219200,1160773632,0,0]
	vmovapd	.LCPI0_32(%rip), %xmm9  # xmm9 = [4.503600e+15,1.934281e+25]
	vmovsd	200(%rsp), %xmm11       # 8-byte Reload
                                        # xmm11 = mem[0],zero
	vmovsd	192(%rsp), %xmm12       # 8-byte Reload
                                        # xmm12 = mem[0],zero
	je	.LBB0_76
	.align	16, 0x90
.LBB0_33:                               # %.preheader.i
                                        #   Parent Loop BB0_1 Depth=1
                                        #     Parent Loop BB0_26 Depth=2
                                        # =>    This Loop Header: Depth=3
                                        #         Child Loop BB0_56 Depth 4
                                        #         Child Loop BB0_44 Depth 4
                                        #         Child Loop BB0_68 Depth 4
	vxorps	%xmm0, %xmm0, %xmm0
	.loc	2 211 34 discriminator 1 # tests/median_test.c:211:34
.Ltmp111:
	testq	%rbp, %rbp
	je	.LBB0_58
.Ltmp112:
# BB#34:                                # %.lr.ph26.i.preheader
                                        #   in Loop: Header=BB0_33 Depth=3
	vxorps	%xmm0, %xmm0, %xmm0
	.loc	2 212 27                # tests/median_test.c:212:27
.Ltmp113:
	cmpq	$3, %rbp
	ja	.LBB0_51
# BB#35:                                #   in Loop: Header=BB0_33 Depth=3
	xorl	%ecx, %ecx
	jmp	.LBB0_36
	.align	16, 0x90
.LBB0_51:                               # %min.iters.checked
                                        #   in Loop: Header=BB0_33 Depth=3
	movq	%rbp, %rax
	movl	$0, %ecx
	andq	$-4, %rax
	je	.LBB0_36
# BB#52:                                # %vector.ph
                                        #   in Loop: Header=BB0_33 Depth=3
	vpermilps	$0, %xmm14, %xmm0 # xmm0 = xmm14[0,0,0,0]
	vpermilps	$0, %xmm13, %xmm1 # xmm1 = xmm13[0,0,0,0]
	vpermilps	$0, %xmm15, %xmm2 # xmm2 = xmm15[0,0,0,0]
	leaq	-4(%rbp), %rdx
	movq	%rdx, %rcx
	shrq	$2, %rcx
	vxorpd	%ymm3, %ymm3, %ymm3
	btq	$2, %rdx
	movl	$0, %edx
	jb	.LBB0_54
# BB#53:                                # %vector.body.prol
                                        #   in Loop: Header=BB0_33 Depth=3
	vmovaps	test_median.sorted(%rip), %xmm3
	.loc	2 213 23                # tests/median_test.c:213:23
.Ltmp114:
	vcmpnleps	%xmm3, %xmm0, %xmm4
	.loc	2 213 43 is_stmt 0 discriminator 1 # tests/median_test.c:213:43
.Ltmp115:
	vcmpnleps	%xmm1, %xmm3, %xmm5
.Ltmp116:
	.loc	2 213 38                # tests/median_test.c:213:38
	vorps	%xmm5, %xmm4, %xmm4
	vpmovsxdq	%xmm4, %xmm5
	vpshufd	$78, %xmm4, %xmm4       # xmm4 = xmm4[2,3,0,1]
	vpmovsxdq	%xmm4, %xmm4
	vinsertf128	$1, %xmm4, %ymm5, %ymm4
	.loc	2 214 36 is_stmt 1      # tests/median_test.c:214:36
.Ltmp117:
	vsubps	%xmm2, %xmm3, %xmm3
	.loc	2 214 34 is_stmt 0      # tests/median_test.c:214:34
	vcvtps2pd	%xmm3, %ymm3
	.loc	2 215 31 is_stmt 1      # tests/median_test.c:215:31
	vmulpd	%ymm3, %ymm3, %ymm3
	.loc	2 215 24 is_stmt 0      # tests/median_test.c:215:24
	vxorpd	%ymm5, %ymm5, %ymm5
	vaddpd	%ymm5, %ymm3, %ymm3
.Ltmp118:
	.loc	2 274 9 is_stmt 1       # tests/median_test.c:274:9
	vblendvpd	%ymm4, %ymm5, %ymm3, %ymm3
	movl	$4, %edx
.LBB0_54:                               # %vector.ph.split
                                        #   in Loop: Header=BB0_33 Depth=3
	.loc	2 212 27                # tests/median_test.c:212:27
.Ltmp119:
	testq	%rcx, %rcx
	je	.LBB0_57
# BB#55:                                # %vector.ph.split.split
                                        #   in Loop: Header=BB0_33 Depth=3
	movq	%rbp, %rcx
	andq	$-4, %rcx
	subq	%rdx, %rcx
	leaq	16(%r12,%rdx,4), %rdx
	.align	16, 0x90
.LBB0_56:                               # %vector.body
                                        #   Parent Loop BB0_1 Depth=1
                                        #     Parent Loop BB0_26 Depth=2
                                        #       Parent Loop BB0_33 Depth=3
                                        # =>      This Inner Loop Header: Depth=4
	vmovaps	-16(%rdx), %xmm4
	vmovaps	(%rdx), %xmm5
	.loc	2 213 23                # tests/median_test.c:213:23
.Ltmp120:
	vcmpnleps	%xmm4, %xmm0, %xmm6
	.loc	2 213 43 is_stmt 0 discriminator 1 # tests/median_test.c:213:43
.Ltmp121:
	vcmpnleps	%xmm1, %xmm4, %xmm7
.Ltmp122:
	.loc	2 213 38                # tests/median_test.c:213:38
	vorps	%xmm7, %xmm6, %xmm6
	vpmovsxdq	%xmm6, %xmm7
	vpshufd	$78, %xmm6, %xmm6       # xmm6 = xmm6[2,3,0,1]
	vpmovsxdq	%xmm6, %xmm6
	vinsertf128	$1, %xmm6, %ymm7, %ymm6
	.loc	2 214 36 is_stmt 1      # tests/median_test.c:214:36
.Ltmp123:
	vsubps	%xmm2, %xmm4, %xmm4
	.loc	2 214 34 is_stmt 0      # tests/median_test.c:214:34
	vcvtps2pd	%xmm4, %ymm4
	.loc	2 215 31 is_stmt 1      # tests/median_test.c:215:31
	vmulpd	%ymm4, %ymm4, %ymm4
	.loc	2 215 24 is_stmt 0      # tests/median_test.c:215:24
	vaddpd	%ymm4, %ymm3, %ymm4
.Ltmp124:
	.loc	2 274 9 is_stmt 1       # tests/median_test.c:274:9
	vblendvpd	%ymm6, %ymm3, %ymm4, %ymm3
	.loc	2 213 23                # tests/median_test.c:213:23
.Ltmp125:
	vcmpnleps	%xmm5, %xmm0, %xmm4
	.loc	2 213 43 is_stmt 0 discriminator 1 # tests/median_test.c:213:43
.Ltmp126:
	vcmpnleps	%xmm1, %xmm5, %xmm6
.Ltmp127:
	.loc	2 213 38                # tests/median_test.c:213:38
	vorps	%xmm6, %xmm4, %xmm4
	vpmovsxdq	%xmm4, %xmm6
	vpshufd	$78, %xmm4, %xmm4       # xmm4 = xmm4[2,3,0,1]
	vpmovsxdq	%xmm4, %xmm4
	vinsertf128	$1, %xmm4, %ymm6, %ymm4
	.loc	2 214 36 is_stmt 1      # tests/median_test.c:214:36
.Ltmp128:
	vsubps	%xmm2, %xmm5, %xmm5
	.loc	2 214 34 is_stmt 0      # tests/median_test.c:214:34
	vcvtps2pd	%xmm5, %ymm5
	.loc	2 215 31 is_stmt 1      # tests/median_test.c:215:31
	vmulpd	%ymm5, %ymm5, %ymm5
	.loc	2 215 24 is_stmt 0      # tests/median_test.c:215:24
	vaddpd	%ymm5, %ymm3, %ymm5
.Ltmp129:
	.loc	2 274 9 is_stmt 1       # tests/median_test.c:274:9
	vblendvpd	%ymm4, %ymm3, %ymm5, %ymm3
	.loc	2 212 27                # tests/median_test.c:212:27
.Ltmp130:
	addq	$32, %rdx
	addq	$-8, %rcx
	jne	.LBB0_56
.Ltmp131:
.LBB0_57:                               # %middle.block
                                        #   in Loop: Header=BB0_33 Depth=3
	.loc	2 274 9                 # tests/median_test.c:274:9
	vextractf128	$1, %ymm3, %xmm0
	vaddpd	%ymm0, %ymm3, %ymm0
	vhaddpd	%ymm0, %ymm0, %ymm0
	movq	%rax, %rcx
	cmpq	%rax, %rbp
	je	.LBB0_58
	.align	16, 0x90
.LBB0_36:                               # %.lr.ph26.i.preheader103
                                        #   in Loop: Header=BB0_33 Depth=3
	.loc	2 212 27                # tests/median_test.c:212:27
.Ltmp132:
	movl	%ebp, %edx
	subl	%ecx, %edx
	leaq	-1(%rbp), %rax
	testb	$1, %dl
	jne	.LBB0_38
# BB#37:                                #   in Loop: Header=BB0_33 Depth=3
	movq	%rcx, %rdx
	jmp	.LBB0_42
	.align	16, 0x90
.LBB0_38:                               # %.lr.ph26.i.prol
                                        #   in Loop: Header=BB0_33 Depth=3
	vmovss	(%r12,%rcx,4), %xmm1    # xmm1 = mem[0],zero,zero,zero
.Ltmp133:
	#DEBUG_VALUE: n <- %XMM1
	.loc	2 213 23                # tests/median_test.c:213:23
	vucomiss	%xmm14, %xmm1
	jb	.LBB0_41
.Ltmp134:
# BB#39:                                # %.lr.ph26.i.prol
                                        #   in Loop: Header=BB0_33 Depth=3
	#DEBUG_VALUE: n <- %XMM1
	vucomiss	%xmm1, %xmm13
	jb	.LBB0_41
.Ltmp135:
# BB#40:                                #   in Loop: Header=BB0_33 Depth=3
	#DEBUG_VALUE: n <- %XMM1
	.loc	2 214 36                # tests/median_test.c:214:36
	vsubss	%xmm15, %xmm1, %xmm1
.Ltmp136:
	.loc	2 214 34 is_stmt 0      # tests/median_test.c:214:34
	vcvtss2sd	%xmm1, %xmm1, %xmm1
.Ltmp137:
	#DEBUG_VALUE: dev <- %XMM1
	.loc	2 215 31 is_stmt 1      # tests/median_test.c:215:31
	vmulsd	%xmm1, %xmm1, %xmm1
.Ltmp138:
	.loc	2 215 24 is_stmt 0      # tests/median_test.c:215:24
	vaddsd	%xmm1, %xmm0, %xmm0
.Ltmp139:
	#DEBUG_VALUE: ss <- %XMM0
.LBB0_41:                               #   in Loop: Header=BB0_33 Depth=3
	.loc	2 211 51 is_stmt 1 discriminator 3 # tests/median_test.c:211:51
	movq	%rcx, %rdx
	orq	$1, %rdx
.Ltmp140:
	#DEBUG_VALUE: c <- %RDX
.LBB0_42:                               # %.lr.ph26.i.preheader103.split
                                        #   in Loop: Header=BB0_33 Depth=3
	.loc	2 212 27                # tests/median_test.c:212:27
	cmpq	%rcx, %rax
	je	.LBB0_58
# BB#43:                                # %.lr.ph26.i.preheader103.split.split
                                        #   in Loop: Header=BB0_33 Depth=3
	movq	%rbp, %rax
	subq	%rdx, %rax
	leaq	4(%r12,%rdx,4), %rcx
	.align	16, 0x90
.LBB0_44:                               # %.lr.ph26.i
                                        #   Parent Loop BB0_1 Depth=1
                                        #     Parent Loop BB0_26 Depth=2
                                        #       Parent Loop BB0_33 Depth=3
                                        # =>      This Inner Loop Header: Depth=4
	vmovss	-4(%rcx), %xmm1         # xmm1 = mem[0],zero,zero,zero
.Ltmp141:
	#DEBUG_VALUE: n <- %XMM1
	.loc	2 213 23                # tests/median_test.c:213:23
	vucomiss	%xmm14, %xmm1
	jb	.LBB0_47
.Ltmp142:
# BB#45:                                # %.lr.ph26.i
                                        #   in Loop: Header=BB0_44 Depth=4
	#DEBUG_VALUE: n <- %XMM1
	vucomiss	%xmm1, %xmm13
	jb	.LBB0_47
.Ltmp143:
# BB#46:                                #   in Loop: Header=BB0_44 Depth=4
	#DEBUG_VALUE: n <- %XMM1
	.loc	2 214 36                # tests/median_test.c:214:36
	vsubss	%xmm15, %xmm1, %xmm1
.Ltmp144:
	.loc	2 214 34 is_stmt 0      # tests/median_test.c:214:34
	vcvtss2sd	%xmm1, %xmm1, %xmm1
.Ltmp145:
	#DEBUG_VALUE: dev <- %XMM1
	.loc	2 215 31 is_stmt 1      # tests/median_test.c:215:31
	vmulsd	%xmm1, %xmm1, %xmm1
.Ltmp146:
	.loc	2 215 24 is_stmt 0      # tests/median_test.c:215:24
	vaddsd	%xmm1, %xmm0, %xmm0
.Ltmp147:
	#DEBUG_VALUE: ss <- %XMM0
.LBB0_47:                               # %.lr.ph26.i.1128
                                        #   in Loop: Header=BB0_44 Depth=4
	.loc	2 212 27 is_stmt 1      # tests/median_test.c:212:27
	vmovss	(%rcx), %xmm1           # xmm1 = mem[0],zero,zero,zero
	.loc	2 213 23                # tests/median_test.c:213:23
.Ltmp148:
	vucomiss	%xmm14, %xmm1
	jb	.LBB0_50
# BB#48:                                # %.lr.ph26.i.1128
                                        #   in Loop: Header=BB0_44 Depth=4
	vucomiss	%xmm1, %xmm13
	jb	.LBB0_50
# BB#49:                                #   in Loop: Header=BB0_44 Depth=4
	.loc	2 214 36                # tests/median_test.c:214:36
.Ltmp149:
	vsubss	%xmm15, %xmm1, %xmm1
	.loc	2 214 34 is_stmt 0      # tests/median_test.c:214:34
	vcvtss2sd	%xmm1, %xmm1, %xmm1
	.loc	2 215 31 is_stmt 1      # tests/median_test.c:215:31
	vmulsd	%xmm1, %xmm1, %xmm1
	.loc	2 215 24 is_stmt 0      # tests/median_test.c:215:24
	vaddsd	%xmm1, %xmm0, %xmm0
.Ltmp150:
.LBB0_50:                               #   in Loop: Header=BB0_44 Depth=4
	.loc	2 211 13 is_stmt 1 discriminator 1 # tests/median_test.c:211:13
	addq	$8, %rcx
	addq	$-2, %rax
	jne	.LBB0_44
.Ltmp151:
.LBB0_58:                               # %._crit_edge27.i
                                        #   in Loop: Header=BB0_33 Depth=3
	.loc	2 218 35                # tests/median_test.c:218:35
	vmovq	%rbp, %xmm1
	vpunpckldq	%xmm8, %xmm1, %xmm1 # xmm1 = xmm1[0],xmm8[0],xmm1[1],xmm8[1]
	vsubpd	%xmm9, %xmm1, %xmm1
	vhaddpd	%xmm1, %xmm1, %xmm1
	.loc	2 218 33 is_stmt 0      # tests/median_test.c:218:33
	vdivsd	%xmm1, %xmm0, %xmm1
	.loc	2 218 25 discriminator 1 # tests/median_test.c:218:25
.Ltmp152:
	vxorps	%xmm0, %xmm0, %xmm0
	vsqrtsd	%xmm1, %xmm0, %xmm0
.Ltmp153:
	.loc	2 218 20                # tests/median_test.c:218:20
	vucomisd	%xmm0, %xmm0
	jnp	.LBB0_60
# BB#59:                                # %call.sqrt
                                        #   in Loop: Header=BB0_33 Depth=3
	vmovapd	%xmm1, %xmm0
	movq	%rsi, %r14
	vmovaps	%xmm13, 240(%rsp)       # 16-byte Spill
	vmovaps	%xmm14, 224(%rsp)       # 16-byte Spill
	vmovaps	%xmm15, 208(%rsp)       # 16-byte Spill
	vzeroupper
	callq	sqrt@PLT
	vmovaps	208(%rsp), %xmm15       # 16-byte Reload
	vmovaps	224(%rsp), %xmm14       # 16-byte Reload
	vmovaps	240(%rsp), %xmm13       # 16-byte Reload
	movq	%r14, %rsi
	vmovsd	192(%rsp), %xmm12       # 8-byte Reload
                                        # xmm12 = mem[0],zero
	vmovsd	200(%rsp), %xmm11       # 8-byte Reload
                                        # xmm11 = mem[0],zero
	movq	184(%rsp), %r14         # 8-byte Reload
	vmovss	.LCPI0_33(%rip), %xmm10 # xmm10 = mem[0],zero,zero,zero
	vmovapd	.LCPI0_32(%rip), %xmm9  # xmm9 = [4.503600e+15,1.934281e+25]
	vmovdqa	.LCPI0_31(%rip), %xmm8  # xmm8 = [1127219200,1160773632,0,0]
.LBB0_60:                               # %._crit_edge27.i.split
                                        #   in Loop: Header=BB0_33 Depth=3
.Ltmp154:
	#DEBUG_VALUE: sd <- %XMM0
	.loc	2 219 36 is_stmt 1      # tests/median_test.c:219:36
	vcvtss2sd	%xmm15, %xmm15, %xmm1
	.loc	2 219 56 is_stmt 0      # tests/median_test.c:219:56
	vmulsd	%xmm0, %xmm11, %xmm2
	.loc	2 219 43                # tests/median_test.c:219:43
	vsubsd	%xmm2, %xmm1, %xmm2
	.loc	2 219 28                # tests/median_test.c:219:28
	vcvtsd2ss	%xmm2, %xmm2, %xmm2
.Ltmp155:
	#DEBUG_VALUE: new_lb <- %XMM2
	.loc	2 220 56 is_stmt 1      # tests/median_test.c:220:56
	vmulsd	%xmm0, %xmm12, %xmm0
.Ltmp156:
	.loc	2 220 43 is_stmt 0      # tests/median_test.c:220:43
	vaddsd	%xmm0, %xmm1, %xmm0
	.loc	2 220 28                # tests/median_test.c:220:28
	vcvtsd2ss	%xmm0, %xmm0, %xmm0
.Ltmp157:
	#DEBUG_VALUE: new_ub <- %XMM0
	.loc	2 222 27 is_stmt 1      # tests/median_test.c:222:27
	vmaxss	%xmm2, %xmm14, %xmm14
.Ltmp158:
	#DEBUG_VALUE: lower_bound <- %XMM14
	.loc	2 223 27                # tests/median_test.c:223:27
	vminss	%xmm0, %xmm13, %xmm13
.Ltmp159:
	#DEBUG_VALUE: c <- 0
	#DEBUG_VALUE: new_count <- 0
	#DEBUG_VALUE: upper_bound <- %XMM13
	movl	$0, %eax
	testq	%rbp, %rbp
	je	.LBB0_75
.Ltmp160:
# BB#61:                                # %.lr.ph31.i.preheader
                                        #   in Loop: Header=BB0_33 Depth=3
	#DEBUG_VALUE: upper_bound <- %XMM13
	#DEBUG_VALUE: lower_bound <- %XMM14
	#DEBUG_VALUE: new_ub <- %XMM0
	#DEBUG_VALUE: new_lb <- %XMM2
                                        # implicit-def: %RAX
	movl	$0, %ecx
	movl	$0, %edx
	.loc	2 227 27                # tests/median_test.c:227:27
.Ltmp161:
	testb	$1, %bpl
	je	.LBB0_66
.Ltmp162:
# BB#62:                                # %.lr.ph31.i.prol
                                        #   in Loop: Header=BB0_33 Depth=3
	#DEBUG_VALUE: new_lb <- %XMM2
	#DEBUG_VALUE: new_ub <- %XMM0
	#DEBUG_VALUE: lower_bound <- %XMM14
	#DEBUG_VALUE: upper_bound <- %XMM13
	vmovss	test_median.sorted(%rip), %xmm0 # xmm0 = mem[0],zero,zero,zero
.Ltmp163:
	#DEBUG_VALUE: n <- %XMM0
	.loc	2 228 23                # tests/median_test.c:228:23
	vucomiss	%xmm14, %xmm0
	jb	.LBB0_63
.Ltmp164:
# BB#64:                                # %.lr.ph31.i.prol
                                        #   in Loop: Header=BB0_33 Depth=3
	#DEBUG_VALUE: upper_bound <- %XMM13
	#DEBUG_VALUE: lower_bound <- %XMM14
	#DEBUG_VALUE: new_lb <- %XMM2
	#DEBUG_VALUE: n <- %XMM0
	vucomiss	%xmm0, %xmm13
	movl	$0, %eax
	movl	$1, %ecx
	movl	$0, %edx
	jb	.LBB0_66
.Ltmp165:
# BB#65:                                #   in Loop: Header=BB0_33 Depth=3
	#DEBUG_VALUE: n <- %XMM0
	#DEBUG_VALUE: new_lb <- %XMM2
	#DEBUG_VALUE: lower_bound <- %XMM14
	#DEBUG_VALUE: upper_bound <- %XMM13
	#DEBUG_VALUE: new_count <- 1
	.loc	2 229 41                # tests/median_test.c:229:41
	vmovss	%xmm0, test_median.sorted(%rip)
	movl	$1, %eax
	movl	$1, %ecx
	movl	$1, %edx
	jmp	.LBB0_66
.Ltmp166:
.LBB0_63:                               #   in Loop: Header=BB0_33 Depth=3
	#DEBUG_VALUE: upper_bound <- %XMM13
	#DEBUG_VALUE: lower_bound <- %XMM14
	#DEBUG_VALUE: new_lb <- %XMM2
	#DEBUG_VALUE: n <- %XMM0
	xorl	%eax, %eax
	movl	$1, %ecx
	xorl	%edx, %edx
.Ltmp167:
	.align	16, 0x90
.LBB0_66:                               # %.lr.ph31.i.preheader.split
                                        #   in Loop: Header=BB0_33 Depth=3
	#DEBUG_VALUE: new_lb <- %XMM2
	#DEBUG_VALUE: lower_bound <- %XMM14
	#DEBUG_VALUE: upper_bound <- %XMM13
	.loc	2 227 27                # tests/median_test.c:227:27
	cmpq	$1, %rbp
	je	.LBB0_75
.Ltmp168:
# BB#67:                                # %.lr.ph31.i.preheader.split.split
                                        #   in Loop: Header=BB0_33 Depth=3
	#DEBUG_VALUE: upper_bound <- %XMM13
	#DEBUG_VALUE: lower_bound <- %XMM14
	#DEBUG_VALUE: new_lb <- %XMM2
	subq	%rcx, %rbp
	leaq	4(%r12,%rcx,4), %rcx
.Ltmp169:
	.loc	2 274 9                 # tests/median_test.c:274:9
	movq	%rdx, %rax
.Ltmp170:
	.align	16, 0x90
.LBB0_68:                               # %.lr.ph31.i
                                        #   Parent Loop BB0_1 Depth=1
                                        #     Parent Loop BB0_26 Depth=2
                                        #       Parent Loop BB0_33 Depth=3
                                        # =>      This Inner Loop Header: Depth=4
	.loc	2 227 27                # tests/median_test.c:227:27
	vmovss	-4(%rcx), %xmm0         # xmm0 = mem[0],zero,zero,zero
.Ltmp171:
	#DEBUG_VALUE: n <- %XMM0
	.loc	2 228 23                # tests/median_test.c:228:23
	vucomiss	%xmm14, %xmm0
	jb	.LBB0_71
.Ltmp172:
# BB#69:                                # %.lr.ph31.i
                                        #   in Loop: Header=BB0_68 Depth=4
	#DEBUG_VALUE: n <- %XMM0
	vucomiss	%xmm0, %xmm13
	jb	.LBB0_71
.Ltmp173:
# BB#70:                                #   in Loop: Header=BB0_68 Depth=4
	#DEBUG_VALUE: n <- %XMM0
	#DEBUG_VALUE: new_count <- %RAX
	.loc	2 229 41                # tests/median_test.c:229:41
	vmovss	%xmm0, (%r12,%rax,4)
	.loc	2 229 37 is_stmt 0      # tests/median_test.c:229:37
	incq	%rax
.Ltmp174:
.LBB0_71:                               # %.lr.ph31.i.1131
                                        #   in Loop: Header=BB0_68 Depth=4
	#DEBUG_VALUE: n <- %XMM0
	.loc	2 227 27 is_stmt 1      # tests/median_test.c:227:27
	vmovss	(%rcx), %xmm0           # xmm0 = mem[0],zero,zero,zero
.Ltmp175:
	.loc	2 228 23                # tests/median_test.c:228:23
	vucomiss	%xmm14, %xmm0
	jb	.LBB0_74
# BB#72:                                # %.lr.ph31.i.1131
                                        #   in Loop: Header=BB0_68 Depth=4
	vucomiss	%xmm0, %xmm13
	jb	.LBB0_74
# BB#73:                                #   in Loop: Header=BB0_68 Depth=4
.Ltmp176:
	#DEBUG_VALUE: current_count <- %RAX
	.loc	2 229 41                # tests/median_test.c:229:41
	vmovss	%xmm0, (%r12,%rax,4)
	.loc	2 229 37 is_stmt 0      # tests/median_test.c:229:37
	incq	%rax
.Ltmp177:
.LBB0_74:                               #   in Loop: Header=BB0_68 Depth=4
	.loc	2 226 13 is_stmt 1 discriminator 1 # tests/median_test.c:226:13
	addq	$8, %rcx
	addq	$-2, %rbp
	jne	.LBB0_68
.Ltmp178:
.LBB0_75:                               # %._crit_edge32.i
                                        #   in Loop: Header=BB0_33 Depth=3
	.loc	2 235 66                # tests/median_test.c:235:66
	leaq	(%rax,%rax), %rcx
	.loc	2 235 38 is_stmt 0      # tests/median_test.c:235:38
	andq	$-4, %rcx
	.loc	2 235 17                # tests/median_test.c:235:17
	vmovss	(%rcx,%r12), %xmm0      # xmm0 = mem[0],zero,zero,zero
	.loc	2 235 45                # tests/median_test.c:235:45
	leaq	-2(%rax,%rax), %rcx
	.loc	2 235 70                # tests/median_test.c:235:70
	andq	$-4, %rcx
	.loc	2 235 43                # tests/median_test.c:235:43
	vaddss	(%rcx,%r12), %xmm0, %xmm0
.Ltmp179:
	.loc	2 209 49 is_stmt 1 discriminator 3 # tests/median_test.c:209:49
	incq	%rsi
.Ltmp180:
	#DEBUG_VALUE: iter <- %RSI
	.loc	2 204 29                # tests/median_test.c:204:29
	vmulss	%xmm10, %xmm0, %xmm15
.Ltmp181:
	.loc	2 274 9                 # tests/median_test.c:274:9
	movq	%rax, %rbp
	.loc	2 209 36 discriminator 1 # tests/median_test.c:209:36
.Ltmp182:
	cmpq	%r14, %rsi
	jne	.LBB0_33
.Ltmp183:
.LBB0_76:                               # %._crit_edge42.i
                                        #   in Loop: Header=BB0_26 Depth=2
	.loc	2 196 9                 # tests/median_test.c:196:9
	leaq	-1(%r15), %rsi
.Ltmp184:
	#DEBUG_VALUE: test_median:b <- %RSI
	.loc	2 238 23                # tests/median_test.c:238:23
	movq	168(%rsp), %rax         # 8-byte Reload
	vmovss	-4(%rax,%r15,4), %xmm1  # xmm1 = mem[0],zero,zero,zero
.Ltmp185:
	.loc	2 238 13 is_stmt 0      # tests/median_test.c:238:13
	vucomiss	%xmm1, %xmm15
	jne	.LBB0_77
	jnp	.LBB0_82
.Ltmp186:
.LBB0_77:
	#DEBUG_VALUE: test_median:b <- %RSI
	.loc	2 239 44 is_stmt 1      # tests/median_test.c:239:44
	vcvtss2sd	%xmm15, %xmm15, %xmm0
	.loc	2 239 52 is_stmt 0      # tests/median_test.c:239:52
	vcvtss2sd	%xmm1, %xmm1, %xmm1
	.loc	2 239 13                # tests/median_test.c:239:13
	leaq	.L.str.14(%rip), %rdi
	movb	$2, %al
	vzeroupper
	callq	printf@PLT
.Ltmp187:
	#DEBUG_VALUE: a <- 0
	.loc	2 240 13 is_stmt 1 discriminator 1 # tests/median_test.c:240:13
	movl	180(%rsp), %eax         # 4-byte Reload
	testb	%al, %al
	je	.LBB0_78
	jmp	.LBB0_80
.Ltmp188:
	.align	16, 0x90
.LBB0_82:                               #   in Loop: Header=BB0_26 Depth=2
	#DEBUG_VALUE: test_median:b <- %RSI
	.loc	2 274 9                 # tests/median_test.c:274:9
	movq	%rsi, %r15
	.loc	2 246 5 discriminator 1 # tests/median_test.c:246:5
.Ltmp189:
	testq	%rsi, %rsi
	jne	.LBB0_26
.Ltmp190:
# BB#83:                                #   in Loop: Header=BB0_1 Depth=1
	#DEBUG_VALUE: test_median:b <- %RSI
	.loc	2 248 9                 # tests/median_test.c:248:9
	movq	376(%rsp), %rax
	movq	%rax, 32(%rsp)
	vmovups	344(%rsp), %ymm0
	vmovups	%ymm0, (%rsp)
	vzeroupper
	callq	check_canary_page@PLT
	.loc	2 248 40 is_stmt 0      # tests/median_test.c:248:40
	testl	%eax, %eax
	jne	.LBB0_84
.Ltmp191:
# BB#85:                                # %test_median.exit
                                        #   in Loop: Header=BB0_1 Depth=1
	#DEBUG_VALUE: test_median:b <- %RSI
	.loc	2 253 5 is_stmt 1       # tests/median_test.c:253:5
	movq	416(%rsp), %rax
	movq	%rax, 32(%rsp)
	vmovups	384(%rsp), %ymm0
	vmovups	%ymm0, (%rsp)
	vzeroupper
	callq	free_canary_page@PLT
	.loc	2 254 5                 # tests/median_test.c:254:5
	movq	376(%rsp), %rax
	movq	%rax, 32(%rsp)
	vmovups	344(%rsp), %ymm0
	vmovups	%ymm0, (%rsp)
	vzeroupper
	callq	free_canary_page@PLT
	movq	136(%rsp), %r14         # 8-byte Reload
.Ltmp192:
	.loc	2 260 40 discriminator 3 # tests/median_test.c:260:40
	incq	%r14
.Ltmp193:
	#DEBUG_VALUE: i <- %R14
	.loc	2 260 5 is_stmt 0 discriminator 1 # tests/median_test.c:260:5
	cmpq	$23, %r14
	jbe	.LBB0_86
.Ltmp194:
# BB#87:
	#DEBUG_VALUE: test_median:b <- %RSI
	#DEBUG_VALUE: i <- %R14
	.loc	2 279 1 is_stmt 1       # tests/median_test.c:279:1
	xorl	%eax, %eax
	addq	$440, %rsp              # imm = 0x1B8
	popq	%rbx
	popq	%r12
	popq	%r13
	popq	%r14
.Ltmp195:
	popq	%r15
	popq	%rbp
	retq
.Ltmp196:
.LBB0_78:
	#DEBUG_VALUE: test_median:b <- %RSI
	.loc	2 241 17                # tests/median_test.c:241:17
	leaq	.L.str.15(%rip), %rbp
.Ltmp197:
	.align	16, 0x90
.LBB0_79:                               # %.lr.ph.i
                                        # =>This Inner Loop Header: Depth=1
	.loc	2 241 31 is_stmt 0      # tests/median_test.c:241:31
	movq	(%rbx), %rax
	movzwl	-2(%rax,%r15,2), %esi
	.loc	2 241 17                # tests/median_test.c:241:17
	xorl	%eax, %eax
	movq	%rbp, %rdi
	callq	printf@PLT
.Ltmp198:
	.loc	2 240 13 is_stmt 1 discriminator 1 # tests/median_test.c:240:13
	addq	$8, %rbx
	decq	%r13
	jne	.LBB0_79
.Ltmp199:
.LBB0_80:                               # %._crit_edge.i
	.loc	2 243 13                # tests/median_test.c:243:13
	leaq	.Lstr.20(%rip), %rdi
.LBB0_81:                               # %._crit_edge.i
	callq	puts@PLT
	.loc	2 244 13                # tests/median_test.c:244:13
	movl	$1, %edi
	callq	exit@PLT
.Ltmp200:
.LBB0_88:
	#DEBUG_VALUE: test_median:max_iter <- [%RSP+184]
	#DEBUG_VALUE: max_iter <- [%RSP+184]
	#DEBUG_VALUE: test_median:offset0 <- %RBP
	#DEBUG_VALUE: offset0 <- %RBP
	#DEBUG_VALUE: random_fill:bin_count <- %R15
	#DEBUG_VALUE: test_median:bin_count <- %R15
	#DEBUG_VALUE: bin_count <- %R15
	#DEBUG_VALUE: current_count <- %R13
	#DEBUG_VALUE: test_median:array_count <- %R13
	#DEBUG_VALUE: array_count <- %R13
	.loc	2 124 5 discriminator 3 # tests/median_test.c:124:5
	leaq	.L.str(%rip), %rdi
	leaq	.L.str.1(%rip), %rsi
	leaq	.L__PRETTY_FUNCTION__.test_median(%rip), %rcx
	movl	$124, %edx
	callq	__assert_fail@PLT
.Ltmp201:
.LBB0_89:
	#DEBUG_VALUE: array_count <- %R13
	#DEBUG_VALUE: test_median:array_count <- %R13
	#DEBUG_VALUE: current_count <- %R13
	#DEBUG_VALUE: bin_count <- %R15
	#DEBUG_VALUE: test_median:bin_count <- %R15
	#DEBUG_VALUE: random_fill:bin_count <- %R15
	#DEBUG_VALUE: offset0 <- %RBP
	#DEBUG_VALUE: test_median:offset0 <- %RBP
	#DEBUG_VALUE: max_iter <- [%RSP+184]
	#DEBUG_VALUE: test_median:max_iter <- [%RSP+184]
	.loc	2 125 5 discriminator 3 # tests/median_test.c:125:5
	leaq	.L.str.2(%rip), %rdi
	leaq	.L.str.1(%rip), %rsi
	leaq	.L__PRETTY_FUNCTION__.test_median(%rip), %rcx
	movl	$125, %edx
	callq	__assert_fail@PLT
.Ltmp202:
.LBB0_90:
	#DEBUG_VALUE: test_median:max_iter <- [%RSP+184]
	#DEBUG_VALUE: max_iter <- [%RSP+184]
	#DEBUG_VALUE: test_median:offset0 <- %RBP
	#DEBUG_VALUE: offset0 <- %RBP
	#DEBUG_VALUE: random_fill:bin_count <- %R15
	#DEBUG_VALUE: test_median:bin_count <- %R15
	#DEBUG_VALUE: bin_count <- %R15
	#DEBUG_VALUE: current_count <- %R13
	#DEBUG_VALUE: test_median:array_count <- %R13
	#DEBUG_VALUE: array_count <- %R13
	.loc	2 126 5 discriminator 2 # tests/median_test.c:126:5
	leaq	.L.str.3(%rip), %rdi
	leaq	.L.str.1(%rip), %rsi
	leaq	.L__PRETTY_FUNCTION__.test_median(%rip), %rcx
	movl	$126, %edx
	callq	__assert_fail@PLT
.Ltmp203:
.LBB0_7:
	#DEBUG_VALUE: array_count <- %R13
	#DEBUG_VALUE: test_median:array_count <- %R13
	#DEBUG_VALUE: current_count <- %R13
	#DEBUG_VALUE: bin_count <- %R15
	#DEBUG_VALUE: test_median:bin_count <- %R15
	#DEBUG_VALUE: random_fill:bin_count <- %R15
	#DEBUG_VALUE: offset0 <- %RBP
	#DEBUG_VALUE: test_median:offset0 <- %RBP
	#DEBUG_VALUE: max_iter <- [%RSP+184]
	#DEBUG_VALUE: test_median:max_iter <- [%RSP+184]
	.loc	2 127 5 discriminator 2 # tests/median_test.c:127:5
	leaq	.L.str.4(%rip), %rdi
	leaq	.L.str.1(%rip), %rsi
	leaq	.L__PRETTY_FUNCTION__.test_median(%rip), %rcx
	movl	$127, %edx
	callq	__assert_fail@PLT
.Ltmp204:
.LBB0_14:
	.loc	2 145 9                 # tests/median_test.c:145:9
	leaq	.L.str.5(%rip), %rdi
	jmp	.LBB0_15
.Ltmp205:
.LBB0_91:
	#DEBUG_VALUE: u16_input:result [bit_piece offset=128 size=64] <- %RBX
	#DEBUG_VALUE: print_timer_elapsed:ns_per_item <- %XMM0
	#DEBUG_VALUE: print_timer_elapsed:ms <- %RSI
	#DEBUG_VALUE: ms_elapsed:before [bit_piece offset=0 size=64] <- %R12
	#DEBUG_VALUE: print_timer_elapsed:before [bit_piece offset=0 size=64] <- %R12
	#DEBUG_VALUE: print_timer_elapsed:item_count <- %RBP
	.loc	2 188 9                 # tests/median_test.c:188:9
	leaq	.L.str.13(%rip), %rdi
.Ltmp206:
.LBB0_15:
	.loc	2 145 9                 # tests/median_test.c:145:9
	callq	perror@PLT
	.loc	2 146 9                 # tests/median_test.c:146:9
	movl	$1, %edi
	callq	exit@PLT
.Ltmp207:
.LBB0_84:
	#DEBUG_VALUE: test_median:b <- %RSI
	.loc	2 249 9                 # tests/median_test.c:249:9
	leaq	.Lstr.19(%rip), %rdi
	jmp	.LBB0_81
.Ltmp208:
.Lfunc_end0:
	.size	main, .Lfunc_end0-main
	.cfi_endproc
	.file	8 "include" "mediocre.h"

	.align	16, 0x90
	.type	u16_input_loop,@function
u16_input_loop:                         # @u16_input_loop
.Lfunc_begin1:
	.loc	2 16 0                  # tests/median_test.c:16:0
	.cfi_startproc
# BB#0:
	pushq	%rbp
.Ltmp209:
	.cfi_def_cfa_offset 16
	pushq	%r15
.Ltmp210:
	.cfi_def_cfa_offset 24
	pushq	%r14
.Ltmp211:
	.cfi_def_cfa_offset 32
	pushq	%r13
.Ltmp212:
	.cfi_def_cfa_offset 40
	pushq	%r12
.Ltmp213:
	.cfi_def_cfa_offset 48
	pushq	%rbx
.Ltmp214:
	.cfi_def_cfa_offset 56
	subq	$88, %rsp
.Ltmp215:
	.cfi_def_cfa_offset 144
.Ltmp216:
	.cfi_offset %rbx, -56
.Ltmp217:
	.cfi_offset %r12, -48
.Ltmp218:
	.cfi_offset %r13, -40
.Ltmp219:
	.cfi_offset %r14, -32
.Ltmp220:
	.cfi_offset %r15, -24
.Ltmp221:
	.cfi_offset %rbp, -16
	#DEBUG_VALUE: u16_input_loop:dimension [bit_piece offset=0 size=64] <- %RDX
	#DEBUG_VALUE: u16_input_loop:dimension [bit_piece offset=64 size=64] <- %RCX
	#DEBUG_VALUE: u16_input_loop:control <- %RDI
	#DEBUG_VALUE: u16_input_loop:user_data <- %RSI
	movq	%rsi, %r12
.Ltmp222:
	#DEBUG_VALUE: u16_input_loop:user_data <- %R12
	movq	%rdi, %r14
.Ltmp223:
	#DEBUG_VALUE: u16_input_loop:control <- %R14
	leaq	48(%rsp), %rdi
	.loc	2 22 5 prologue_end     # tests/median_test.c:22:5
.Ltmp224:
	movq	%r14, %rsi
	callq	mediocre_input_control_get@PLT
	.loc	2 22 5 is_stmt 0 discriminator 1 # tests/median_test.c:22:5
.Ltmp225:
	cmpq	$0, 48(%rsp)
	jne	.LBB1_12
.Ltmp226:
# BB#1:                                 # %.preheader.lr.ph
	#DEBUG_VALUE: u16_input_loop:control <- %R14
	#DEBUG_VALUE: u16_input_loop:user_data <- %R12
	#DEBUG_VALUE: u16_input_loop:dimension [bit_piece offset=64 size=64] <- %RCX
	.loc	2 22 5 discriminator 3  # tests/median_test.c:22:5
	movq	80(%rsp), %r13
.Ltmp227:
	#DEBUG_VALUE: u16_input_loop:command [bit_piece offset=256 size=64] <- %R13
	movq	72(%rsp), %r11
.Ltmp228:
	#DEBUG_VALUE: u16_input_loop:command [bit_piece offset=192 size=64] <- %R11
	movq	56(%rsp), %r8
.Ltmp229:
	#DEBUG_VALUE: u16_input_loop:command [bit_piece offset=64 size=64] <- %R8
	movq	64(%rsp), %r15
.Ltmp230:
	#DEBUG_VALUE: u16_input_loop:command [bit_piece offset=128 size=64] <- %R15
	.align	16, 0x90
.LBB1_2:                                # %.preheader
                                        # =>This Loop Header: Depth=1
                                        #     Child Loop BB1_4 Depth 2
                                        #       Child Loop BB1_9 Depth 3
	.loc	2 28 42 is_stmt 1 discriminator 1 # tests/median_test.c:28:42
	testq	%r15, %r15
	je	.LBB1_11
# BB#3:                                 # %.lr.ph4
                                        #   in Loop: Header=BB1_2 Depth=1
	.loc	8 266 13                # include/mediocre.h:266:13
.Ltmp231:
	movl	%r11d, %r9d
	andl	$1, %r9d
	xorl	%ecx, %ecx
.Ltmp232:
	.align	16, 0x90
.LBB1_4:                                #   Parent Loop BB1_2 Depth=1
                                        # =>  This Loop Header: Depth=2
                                        #       Child Loop BB1_9 Depth 3
	testq	%r11, %r11
.Ltmp233:
	#DEBUG_VALUE: n <- 0
	je	.LBB1_10
# BB#5:                                 # %.lr.ph.preheader
                                        #   in Loop: Header=BB1_4 Depth=2
	.loc	2 29 44                 # tests/median_test.c:29:44
	movq	(%r12,%rcx,8), %r10
	movl	$0, %edx
	testq	%r9, %r9
	je	.LBB1_7
# BB#6:                                 # %.lr.ph.prol
                                        #   in Loop: Header=BB1_4 Depth=2
	.loc	8 278 13                # include/mediocre.h:278:13
.Ltmp234:
	movq	%rcx, %rax
	shlq	$5, %rax
.Ltmp235:
	#DEBUG_VALUE: mediocre_chunk_ptr:chunk_ptr <- %R13
	#DEBUG_VALUE: mediocre_chunk_ptr:width_axis <- 1
	.loc	2 34 22                 # tests/median_test.c:34:22
	movzwl	(%r10,%r8,2), %edi
	vcvtsi2ssl	%edi, %xmm0, %xmm0
	.loc	2 34 20 is_stmt 0       # tests/median_test.c:34:20
	vmovss	%xmm0, (%r13,%rax)
.Ltmp236:
	#DEBUG_VALUE: n <- 1
	movl	$1, %edx
.Ltmp237:
.LBB1_7:                                # %.lr.ph.preheader.split
                                        #   in Loop: Header=BB1_4 Depth=2
	cmpq	$1, %r11
	je	.LBB1_10
# BB#8:                                 # %.lr.ph.preheader.split.split
                                        #   in Loop: Header=BB1_4 Depth=2
	.loc	8 266 13 is_stmt 1      # include/mediocre.h:266:13
.Ltmp238:
	leaq	2(%r10,%r8,2), %rdi
	.align	16, 0x90
.LBB1_9:                                # %.lr.ph
                                        #   Parent Loop BB1_2 Depth=1
                                        #     Parent Loop BB1_4 Depth=2
                                        # =>    This Inner Loop Header: Depth=3
	.loc	8 272 47                # include/mediocre.h:272:47
	movq	%rdx, %rax
	shrq	$3, %rax
	.loc	8 272 52 is_stmt 0      # include/mediocre.h:272:52
	imulq	%r15, %rax
	.loc	8 272 32                # include/mediocre.h:272:32
	shlq	$5, %rax
	addq	%r13, %rax
.Ltmp239:
	#DEBUG_VALUE: mediocre_chunk_ptr:chunk_ptr <- %RAX
	.loc	8 276 36 is_stmt 1      # include/mediocre.h:276:36
	movq	%rcx, %rbx
	shlq	$5, %rbx
	addq	%rbx, %rax
.Ltmp240:
	#DEBUG_VALUE: mediocre_chunk_ptr:vector_ptr <- %RAX
	.loc	8 278 47                # include/mediocre.h:278:47
	movl	%edx, %esi
	andl	$7, %esi
.Ltmp241:
	.loc	2 34 22                 # tests/median_test.c:34:22
	movzwl	-2(%rdi,%rdx,2), %ebp
	vcvtsi2ssl	%ebp, %xmm0, %xmm0
	.loc	2 34 20 is_stmt 0       # tests/median_test.c:34:20
	vmovss	%xmm0, (%rax,%rsi,4)
.Ltmp242:
	.loc	2 31 44 is_stmt 1 discriminator 3 # tests/median_test.c:31:44
	leaq	1(%rdx), %rax
.Ltmp243:
	#DEBUG_VALUE: mediocre_chunk_ptr:width_axis <- %RAX
	#DEBUG_VALUE: n <- %RAX
	.loc	8 272 47                # include/mediocre.h:272:47
	movq	%rax, %rsi
	shrq	$3, %rsi
	.loc	8 272 52 is_stmt 0      # include/mediocre.h:272:52
	imulq	%r15, %rsi
	.loc	8 272 32                # include/mediocre.h:272:32
	shlq	$5, %rsi
	addq	%r13, %rsi
	.loc	8 276 36 is_stmt 1      # include/mediocre.h:276:36
	addq	%rbx, %rsi
	.loc	8 278 47                # include/mediocre.h:278:47
	andl	$7, %eax
.Ltmp244:
	.loc	2 34 22                 # tests/median_test.c:34:22
	movzwl	(%rdi,%rdx,2), %ebp
	vxorps	%xmm0, %xmm0, %xmm0
	vcvtsi2ssl	%ebp, %xmm0, %xmm0
	.loc	2 34 20 is_stmt 0       # tests/median_test.c:34:20
	vmovss	%xmm0, (%rsi,%rax,4)
.Ltmp245:
	.loc	2 31 44 is_stmt 1 discriminator 3 # tests/median_test.c:31:44
	addq	$2, %rdx
	.loc	2 31 34 is_stmt 0 discriminator 1 # tests/median_test.c:31:34
	cmpq	%rdx, %r11
	jne	.LBB1_9
.Ltmp246:
.LBB1_10:                               # %._crit_edge
                                        #   in Loop: Header=BB1_4 Depth=2
	.loc	2 28 58 is_stmt 1 discriminator 3 # tests/median_test.c:28:58
	incq	%rcx
.Ltmp247:
	#DEBUG_VALUE: array_i <- %RCX
	#DEBUG_VALUE: mediocre_chunk_ptr:combine_axis <- %RCX
	.loc	2 28 42 is_stmt 0 discriminator 1 # tests/median_test.c:28:42
	cmpq	%r15, %rcx
	jne	.LBB1_4
.Ltmp248:
.LBB1_11:                               # %._crit_edge5
                                        #   in Loop: Header=BB1_2 Depth=1
	leaq	8(%rsp), %rdi
	.loc	2 22 5 is_stmt 1 discriminator 2 # tests/median_test.c:22:5
	movq	%r14, %rsi
	callq	mediocre_input_control_get@PLT
	.loc	2 22 5 is_stmt 0 discriminator 4 # tests/median_test.c:22:5
.Ltmp249:
	movq	16(%rsp), %r8
.Ltmp250:
	#DEBUG_VALUE: u16_input_loop:command [bit_piece offset=64 size=64] <- %R8
	movq	24(%rsp), %r15
.Ltmp251:
	#DEBUG_VALUE: mediocre_chunk_ptr:combine_count <- %R15
	#DEBUG_VALUE: u16_input_loop:command [bit_piece offset=128 size=64] <- %R15
	movq	32(%rsp), %r11
.Ltmp252:
	#DEBUG_VALUE: u16_input_loop:command [bit_piece offset=192 size=64] <- %R11
	movq	40(%rsp), %r13
.Ltmp253:
	#DEBUG_VALUE: mediocre_chunk_ptr:chunks <- %R13
	#DEBUG_VALUE: u16_input_loop:command [bit_piece offset=256 size=64] <- %R13
	.loc	2 22 5 discriminator 1  # tests/median_test.c:22:5
	cmpq	$0, 8(%rsp)
	je	.LBB1_2
.Ltmp254:
.LBB1_12:                               # %._crit_edge10
	.loc	2 39 5 is_stmt 1        # tests/median_test.c:39:5
	xorl	%eax, %eax
	addq	$88, %rsp
	popq	%rbx
	popq	%r12
	popq	%r13
	popq	%r14
	popq	%r15
	popq	%rbp
	retq
.Ltmp255:
.Lfunc_end1:
	.size	u16_input_loop, .Lfunc_end1-u16_input_loop
	.cfi_endproc
	.file	9 "/usr/lib/llvm-3.8/bin/../lib/clang/3.8.0/include" "avxintrin.h"

	.align	16, 0x90
	.type	no_op,@function
no_op:                                  # @no_op
.Lfunc_begin2:
	.loc	2 42 0                  # tests/median_test.c:42:0
	.cfi_startproc
# BB#0:
	#DEBUG_VALUE: no_op:ignored <- %RDI
	.loc	2 44 1 prologue_end     # tests/median_test.c:44:1
	retq
.Ltmp256:
.Lfunc_end2:
	.size	no_op, .Lfunc_end2-no_op
	.cfi_endproc

	.type	generator,@object       # @generator
	.local	generator
	.comm	generator,8,8
	.type	.L.str,@object          # @.str
	.section	.rodata.str1.1,"aMS",@progbits,1
.L.str:
	.asciz	"min_array_count <= array_count && array_count <= max_array_count"
	.size	.L.str, 65

	.type	.L.str.1,@object        # @.str.1
.L.str.1:
	.asciz	"tests/median_test.c"
	.size	.L.str.1, 20

	.type	.L__PRETTY_FUNCTION__.test_median,@object # @__PRETTY_FUNCTION__.test_median
.L__PRETTY_FUNCTION__.test_median:
	.asciz	"void test_median(size_t, size_t, size_t, size_t, double, double, size_t)"
	.size	.L__PRETTY_FUNCTION__.test_median, 73

	.type	.L.str.2,@object        # @.str.2
.L.str.2:
	.asciz	"min_bin_count <= bin_count && bin_count <= max_bin_count"
	.size	.L.str.2, 57

	.type	.L.str.3,@object        # @.str.3
.L.str.3:
	.asciz	"offset0 <= max_offset"
	.size	.L.str.3, 22

	.type	.L.str.4,@object        # @.str.4
.L.str.4:
	.asciz	"offset1 <= max_offset"
	.size	.L.str.4, 22

	.type	test_median.input_pointers,@object # @test_median.input_pointers
	.local	test_median.input_pointers
	.comm	test_median.input_pointers,2000,16
	.type	input_data,@object      # @input_data
	.local	input_data
	.comm	input_data,225000032,16
	.type	.L.str.5,@object        # @.str.5
.L.str.5:
	.asciz	"test_mean init_canary_page"
	.size	.L.str.5, 27

	.type	.L.str.6,@object        # @.str.6
.L.str.6:
	.asciz	"Seed = %llu\n"
	.size	.L.str.6, 13

	.type	.L.str.7,@object        # @.str.7
.L.str.7:
	.asciz	"\tMedian of %zi arrays of %zi integers.\n"
	.size	.L.str.7, 40

	.type	.L.str.8,@object        # @.str.8
.L.str.8:
	.asciz	"\tinput offset %zi output offset %zi.\n"
	.size	.L.str.8, 38

	.type	.L.str.9,@object        # @.str.9
.L.str.9:
	.asciz	"sigma[-%f, %f] max_iter %zi\n"
	.size	.L.str.9, 29

	.type	.L.str.10,@object       # @.str.10
.L.str.10:
	.asciz	"thread_count = %i\n"
	.size	.L.str.10, 19

	.type	timer_begin,@object     # @timer_begin
	.local	timer_begin
	.comm	timer_begin,16,8
	.type	.L.str.11,@object       # @.str.11
.L.str.11:
	.asciz	"\033[32m\033[1mmedian:       "
	.size	.L.str.11, 24

	.type	.L.str.13,@object       # @.str.13
.L.str.13:
	.asciz	"mediocre_clipped_median_u16 failed"
	.size	.L.str.13, 35

	.type	test_median.sorted,@object # @test_median.sorted
	.local	test_median.sorted
	.comm	test_median.sorted,1000,16
	.type	.L.str.14,@object       # @.str.14
.L.str.14:
	.asciz	"[%zi] %f != %f\n["
	.size	.L.str.14, 17

	.type	.L.str.15,@object       # @.str.15
.L.str.15:
	.asciz	"%u,"
	.size	.L.str.15, 4

	.type	get_shuffled_array_counts.numbers,@object # @get_shuffled_array_counts.numbers
	.local	get_shuffled_array_counts.numbers
	.comm	get_shuffled_array_counts.numbers,1000,32
	.type	get_shuffled_array_counts.init,@object # @get_shuffled_array_counts.init
	.local	get_shuffled_array_counts.init
	.comm	get_shuffled_array_counts.init,1,1
	.type	.L.str.18,@object       # @.str.18
.L.str.18:
	.asciz	"%lims elapsed (%4.2fns per item)."
	.size	.L.str.18, 34

	.type	.Lstr,@object           # @str
.Lstr:
	.asciz	"\033[0m"
	.size	.Lstr, 5

	.type	.Lstr.19,@object        # @str.19
	.section	.rodata.str1.16,"aMS",@progbits,1
	.align	16
.Lstr.19:
	.asciz	"Output buffer overrun."
	.size	.Lstr.19, 23

	.type	.Lstr.20,@object        # @str.20
	.section	.rodata.str1.1,"aMS",@progbits,1
.Lstr.20:
	.asciz	" ]"
	.size	.Lstr.20, 3

	.section	".note.GNU-stack","",@progbits